Archive member included to satisfy reference by file (symbol)

../../../../build/lib/libc/libc.a(crt0.S.obj)
                              (__start)
../../../../build/lib/libc/libc.a(crt1.c.obj)
                              ../../../../build/lib/libc/libc.a(crt0.S.obj) (__entryC)
../../../../build/lib/libc/libc.a(strcmp.c.obj)
                              build/py/lexer.o (strcmp)
../../../../build/lib/libc/libc.a(strncmp.c.obj)
                              build/py/builtinimport.o (strncmp)
../../../../build/lib/libc/libc.a(strlen.c.obj)
                              build/py/qstr.o (strlen)
../../../../build/lib/libc/libc.a(memcpy.c.obj)
                              build/py/gc.o (memcpy)
../../../../build/lib/libc/libc.a(memset.c.obj)
                              build/py/gc.o (memset)
../../../../build/lib/libc/libc.a(memcmp.c.obj)
                              build/py/qstr.o (memcmp)
../../../../build/lib/libc/libc.a(memmove.c.obj)
                              build/py/vstr.o (memmove)
../../../../build/lib/libc/libc.a(strchr.c.obj)
                              build/py/objstr.o (strchr)
../../../../build/lib/libc/libc.a(write.c.obj)
                              build/uart_core.o (write)
../../../../build/lib/libc/libc.a(read.c.obj)
                              build/uart_core.o (read)
../../../../build/lib/libc/libc.a(getpid.c.obj)
                              ../../../../build/lib/libc/libc.a(crt1.c.obj) (getpid)
../../../../build/lib/libc/libc.a(__environ.c.obj)
                              ../../../../build/lib/libc/libc.a(crt1.c.obj) (__environ)
../../../../build/lib/libc/libc.a(exit.c.obj)
                              ../../../../build/lib/libc/libc.a(crt0.S.obj) (exit)
../../../../build/lib/libc/libc.a(_Exit.c.obj)
                              ../../../../build/lib/libc/libc.a(exit.c.obj) (_Exit)
../../../../build/lib/libc/libc.a(waitpid.c.obj)
                              ../../../../build/lib/libc/libc.a(crt1.c.obj) (waitpid)
../../../../build/lib/libc/libc.a(sigaction.c.obj)
                              ../../../../build/lib/libc/libc.a(crt1.c.obj) (sigaction)
../../../../build/lib/libc/libc.a(strchrnul.c.obj)
                              ../../../../build/lib/libc/libc.a(strchr.c.obj) (__strchrnul)

Discarded input sections

 .text          0x0000000000000000        0x0 build/py/mpstate.o
 .data          0x0000000000000000        0x0 build/py/mpstate.o
 .bss           0x0000000000000000        0x0 build/py/mpstate.o
 .text          0x0000000000000000        0x0 build/py/nlr.o
 .data          0x0000000000000000        0x0 build/py/nlr.o
 .bss           0x0000000000000000        0x0 build/py/nlr.o
 .eh_frame      0x0000000000000000       0x90 build/py/nlr.o
 .text          0x0000000000000000        0x0 build/py/nlrx86.o
 .data          0x0000000000000000        0x0 build/py/nlrx86.o
 .bss           0x0000000000000000        0x0 build/py/nlrx86.o
 .debug_info    0x0000000000000000       0x87 build/py/nlrx86.o
 .debug_abbrev  0x0000000000000000       0x26 build/py/nlrx86.o
 .debug_aranges
                0x0000000000000000       0x20 build/py/nlrx86.o
 .debug_line    0x0000000000000000       0x1d build/py/nlrx86.o
 .debug_str     0x0000000000000000      0x162 build/py/nlrx86.o
 .comment       0x0000000000000000       0x5e build/py/nlrx86.o
 .note.GNU-stack
                0x0000000000000000        0x0 build/py/nlrx86.o
 .text          0x0000000000000000        0x0 build/py/nlrx64.o
 .data          0x0000000000000000        0x0 build/py/nlrx64.o
 .bss           0x0000000000000000        0x0 build/py/nlrx64.o
 .debug_info    0x0000000000000000       0x87 build/py/nlrx64.o
 .debug_abbrev  0x0000000000000000       0x26 build/py/nlrx64.o
 .debug_aranges
                0x0000000000000000       0x20 build/py/nlrx64.o
 .debug_line    0x0000000000000000       0x1d build/py/nlrx64.o
 .debug_str     0x0000000000000000      0x162 build/py/nlrx64.o
 .comment       0x0000000000000000       0x5e build/py/nlrx64.o
 .note.GNU-stack
                0x0000000000000000        0x0 build/py/nlrx64.o
 .text          0x0000000000000000        0x0 build/py/nlrthumb.o
 .data          0x0000000000000000        0x0 build/py/nlrthumb.o
 .bss           0x0000000000000000        0x0 build/py/nlrthumb.o
 .debug_info    0x0000000000000000       0x87 build/py/nlrthumb.o
 .debug_abbrev  0x0000000000000000       0x26 build/py/nlrthumb.o
 .debug_aranges
                0x0000000000000000       0x20 build/py/nlrthumb.o
 .debug_line    0x0000000000000000       0x1d build/py/nlrthumb.o
 .debug_str     0x0000000000000000      0x164 build/py/nlrthumb.o
 .comment       0x0000000000000000       0x5e build/py/nlrthumb.o
 .note.GNU-stack
                0x0000000000000000        0x0 build/py/nlrthumb.o
 .data          0x0000000000000000        0x0 build/py/nlraarch64.o
 .bss           0x0000000000000000        0x0 build/py/nlraarch64.o
 .eh_frame      0x0000000000000000       0x38 build/py/nlraarch64.o
 .text          0x0000000000000000        0x0 build/py/nlrmips.o
 .data          0x0000000000000000        0x0 build/py/nlrmips.o
 .bss           0x0000000000000000        0x0 build/py/nlrmips.o
 .debug_info    0x0000000000000000       0x87 build/py/nlrmips.o
 .debug_abbrev  0x0000000000000000       0x26 build/py/nlrmips.o
 .debug_aranges
                0x0000000000000000       0x20 build/py/nlrmips.o
 .debug_line    0x0000000000000000       0x1d build/py/nlrmips.o
 .debug_str     0x0000000000000000      0x163 build/py/nlrmips.o
 .comment       0x0000000000000000       0x5e build/py/nlrmips.o
 .note.GNU-stack
                0x0000000000000000        0x0 build/py/nlrmips.o
 .text          0x0000000000000000        0x0 build/py/nlrpowerpc.o
 .data          0x0000000000000000        0x0 build/py/nlrpowerpc.o
 .bss           0x0000000000000000        0x0 build/py/nlrpowerpc.o
 .debug_info    0x0000000000000000       0x87 build/py/nlrpowerpc.o
 .debug_abbrev  0x0000000000000000       0x26 build/py/nlrpowerpc.o
 .debug_aranges
                0x0000000000000000       0x20 build/py/nlrpowerpc.o
 .debug_line    0x0000000000000000       0x1d build/py/nlrpowerpc.o
 .debug_str     0x0000000000000000      0x166 build/py/nlrpowerpc.o
 .comment       0x0000000000000000       0x5e build/py/nlrpowerpc.o
 .note.GNU-stack
                0x0000000000000000        0x0 build/py/nlrpowerpc.o
 .text          0x0000000000000000        0x0 build/py/nlrxtensa.o
 .data          0x0000000000000000        0x0 build/py/nlrxtensa.o
 .bss           0x0000000000000000        0x0 build/py/nlrxtensa.o
 .debug_info    0x0000000000000000       0x87 build/py/nlrxtensa.o
 .debug_abbrev  0x0000000000000000       0x26 build/py/nlrxtensa.o
 .debug_aranges
                0x0000000000000000       0x20 build/py/nlrxtensa.o
 .debug_line    0x0000000000000000       0x1d build/py/nlrxtensa.o
 .debug_str     0x0000000000000000      0x165 build/py/nlrxtensa.o
 .comment       0x0000000000000000       0x5e build/py/nlrxtensa.o
 .note.GNU-stack
                0x0000000000000000        0x0 build/py/nlrxtensa.o
 .text          0x0000000000000000        0x0 build/py/nlrsetjmp.o
 .data          0x0000000000000000        0x0 build/py/nlrsetjmp.o
 .bss           0x0000000000000000        0x0 build/py/nlrsetjmp.o
 .debug_info    0x0000000000000000       0x87 build/py/nlrsetjmp.o
 .debug_abbrev  0x0000000000000000       0x26 build/py/nlrsetjmp.o
 .debug_aranges
                0x0000000000000000       0x20 build/py/nlrsetjmp.o
 .debug_line    0x0000000000000000       0x1d build/py/nlrsetjmp.o
 .debug_str     0x0000000000000000      0x165 build/py/nlrsetjmp.o
 .comment       0x0000000000000000       0x5e build/py/nlrsetjmp.o
 .note.GNU-stack
                0x0000000000000000        0x0 build/py/nlrsetjmp.o
 .text          0x0000000000000000        0x0 build/py/malloc.o
 .data          0x0000000000000000        0x0 build/py/malloc.o
 .bss           0x0000000000000000        0x0 build/py/malloc.o
 .eh_frame      0x0000000000000000       0xb0 build/py/malloc.o
 .text          0x0000000000000000        0x0 build/py/gc.o
 .data          0x0000000000000000        0x0 build/py/gc.o
 .bss           0x0000000000000000        0x0 build/py/gc.o
 .text.gc_lock  0x0000000000000000       0x18 build/py/gc.o
 .text.gc_unlock
                0x0000000000000000       0x18 build/py/gc.o
 .text.gc_sweep_all
                0x0000000000000000       0x1c build/py/gc.o
 .text.gc_nbytes
                0x0000000000000000       0x90 build/py/gc.o
 .rodata.gc_dump_alloc_table.str1.1
                0x0000000000000000       0x44 build/py/gc.o
 .text.gc_dump_alloc_table
                0x0000000000000000      0x1f0 build/py/gc.o
 .eh_frame      0x0000000000000000      0x1f0 build/py/gc.o
 .text          0x0000000000000000        0x0 build/py/pystack.o
 .data          0x0000000000000000        0x0 build/py/pystack.o
 .bss           0x0000000000000000        0x0 build/py/pystack.o
 .debug_info    0x0000000000000000       0x87 build/py/pystack.o
 .debug_abbrev  0x0000000000000000       0x26 build/py/pystack.o
 .debug_aranges
                0x0000000000000000       0x20 build/py/pystack.o
 .debug_line    0x0000000000000000       0x1d build/py/pystack.o
 .debug_str     0x0000000000000000      0x15f build/py/pystack.o
 .comment       0x0000000000000000       0x5e build/py/pystack.o
 .note.GNU-stack
                0x0000000000000000        0x0 build/py/pystack.o
 .text          0x0000000000000000        0x0 build/py/qstr.o
 .data          0x0000000000000000        0x0 build/py/qstr.o
 .bss           0x0000000000000000        0x0 build/py/qstr.o
 .text.qstr_from_str
                0x0000000000000000       0x28 build/py/qstr.o
 .text.qstr_pool_info
                0x0000000000000000       0xd8 build/py/qstr.o
 .eh_frame      0x0000000000000000      0x1b0 build/py/qstr.o
 .text          0x0000000000000000        0x0 build/py/vstr.o
 .data          0x0000000000000000        0x0 build/py/vstr.o
 .bss           0x0000000000000000        0x0 build/py/vstr.o
 .text.vstr_new
                0x0000000000000000       0x34 build/py/vstr.o
 .text.vstr_free
                0x0000000000000000       0x38 build/py/vstr.o
 .text.vstr_hint_size
                0x0000000000000000        0x4 build/py/vstr.o
 .text.vstr_cut_head_bytes
                0x0000000000000000        0xc build/py/vstr.o
 .text.vstr_vprintf
                0x0000000000000000       0x3c build/py/vstr.o
 .text.vstr_printf
                0x0000000000000000       0x74 build/py/vstr.o
 .eh_frame      0x0000000000000000      0x328 build/py/vstr.o
 .text          0x0000000000000000        0x0 build/py/mpprint.o
 .data          0x0000000000000000        0x0 build/py/mpprint.o
 .bss           0x0000000000000000        0x0 build/py/mpprint.o
 .eh_frame      0x0000000000000000      0x178 build/py/mpprint.o
 .text          0x0000000000000000        0x0 build/py/unicode.o
 .data          0x0000000000000000        0x0 build/py/unicode.o
 .bss           0x0000000000000000        0x0 build/py/unicode.o
 .text.unichar_isalnum
                0x0000000000000000       0x28 build/py/unicode.o
 .eh_frame      0x0000000000000000      0x108 build/py/unicode.o
 .text          0x0000000000000000        0x0 build/py/mpz.o
 .data          0x0000000000000000        0x0 build/py/mpz.o
 .bss           0x0000000000000000        0x0 build/py/mpz.o
 .debug_info    0x0000000000000000       0x87 build/py/mpz.o
 .debug_abbrev  0x0000000000000000       0x26 build/py/mpz.o
 .debug_aranges
                0x0000000000000000       0x20 build/py/mpz.o
 .debug_line    0x0000000000000000       0x1d build/py/mpz.o
 .debug_str     0x0000000000000000      0x15b build/py/mpz.o
 .comment       0x0000000000000000       0x5e build/py/mpz.o
 .note.GNU-stack
                0x0000000000000000        0x0 build/py/mpz.o
 .text          0x0000000000000000        0x0 build/py/reader.o
 .data          0x0000000000000000        0x0 build/py/reader.o
 .bss           0x0000000000000000        0x0 build/py/reader.o
 .eh_frame      0x0000000000000000       0x78 build/py/reader.o
 .text          0x0000000000000000        0x0 build/py/lexer.o
 .data          0x0000000000000000        0x0 build/py/lexer.o
 .bss           0x0000000000000000        0x0 build/py/lexer.o
 .eh_frame      0x0000000000000000      0x130 build/py/lexer.o
 .text          0x0000000000000000        0x0 build/py/parse.o
 .data          0x0000000000000000        0x0 build/py/parse.o
 .bss           0x0000000000000000        0x0 build/py/parse.o
 .text.mp_parse_node_get_int_maybe
                0x0000000000000000       0x60 build/py/parse.o
 .eh_frame      0x0000000000000000      0x1e0 build/py/parse.o
 .text          0x0000000000000000        0x0 build/py/scope.o
 .data          0x0000000000000000        0x0 build/py/scope.o
 .bss           0x0000000000000000        0x0 build/py/scope.o
 .eh_frame      0x0000000000000000       0xe8 build/py/scope.o
 .text          0x0000000000000000        0x0 build/py/compile.o
 .data          0x0000000000000000        0x0 build/py/compile.o
 .bss           0x0000000000000000        0x0 build/py/compile.o
 .eh_frame      0x0000000000000000      0xe20 build/py/compile.o
 .text          0x0000000000000000        0x0 build/py/emitcommon.o
 .data          0x0000000000000000        0x0 build/py/emitcommon.o
 .bss           0x0000000000000000        0x0 build/py/emitcommon.o
 .eh_frame      0x0000000000000000       0xf8 build/py/emitcommon.o
 .text          0x0000000000000000        0x0 build/py/emitbc.o
 .data          0x0000000000000000        0x0 build/py/emitbc.o
 .bss           0x0000000000000000        0x0 build/py/emitbc.o
 .eh_frame      0x0000000000000000      0x698 build/py/emitbc.o
 .text          0x0000000000000000        0x0 build/py/asmbase.o
 .data          0x0000000000000000        0x0 build/py/asmbase.o
 .bss           0x0000000000000000        0x0 build/py/asmbase.o
 .debug_info    0x0000000000000000       0x87 build/py/asmbase.o
 .debug_abbrev  0x0000000000000000       0x26 build/py/asmbase.o
 .debug_aranges
                0x0000000000000000       0x20 build/py/asmbase.o
 .debug_line    0x0000000000000000       0x1d build/py/asmbase.o
 .debug_str     0x0000000000000000      0x15f build/py/asmbase.o
 .comment       0x0000000000000000       0x5e build/py/asmbase.o
 .note.GNU-stack
                0x0000000000000000        0x0 build/py/asmbase.o
 .text          0x0000000000000000        0x0 build/py/asmx64.o
 .data          0x0000000000000000        0x0 build/py/asmx64.o
 .bss           0x0000000000000000        0x0 build/py/asmx64.o
 .debug_info    0x0000000000000000       0x80 build/py/asmx64.o
 .debug_abbrev  0x0000000000000000       0x26 build/py/asmx64.o
 .debug_aranges
                0x0000000000000000       0x20 build/py/asmx64.o
 .debug_line    0x0000000000000000       0x1d build/py/asmx64.o
 .debug_str     0x0000000000000000      0x158 build/py/asmx64.o
 .comment       0x0000000000000000       0x5e build/py/asmx64.o
 .note.GNU-stack
                0x0000000000000000        0x0 build/py/asmx64.o
 .text          0x0000000000000000        0x0 build/py/emitnx64.o
 .data          0x0000000000000000        0x0 build/py/emitnx64.o
 .bss           0x0000000000000000        0x0 build/py/emitnx64.o
 .debug_info    0x0000000000000000       0x80 build/py/emitnx64.o
 .debug_abbrev  0x0000000000000000       0x26 build/py/emitnx64.o
 .debug_aranges
                0x0000000000000000       0x20 build/py/emitnx64.o
 .debug_line    0x0000000000000000       0x1d build/py/emitnx64.o
 .debug_str     0x0000000000000000      0x15a build/py/emitnx64.o
 .comment       0x0000000000000000       0x5e build/py/emitnx64.o
 .note.GNU-stack
                0x0000000000000000        0x0 build/py/emitnx64.o
 .text          0x0000000000000000        0x0 build/py/asmx86.o
 .data          0x0000000000000000        0x0 build/py/asmx86.o
 .bss           0x0000000000000000        0x0 build/py/asmx86.o
 .debug_info    0x0000000000000000       0x80 build/py/asmx86.o
 .debug_abbrev  0x0000000000000000       0x26 build/py/asmx86.o
 .debug_aranges
                0x0000000000000000       0x20 build/py/asmx86.o
 .debug_line    0x0000000000000000       0x1d build/py/asmx86.o
 .debug_str     0x0000000000000000      0x158 build/py/asmx86.o
 .comment       0x0000000000000000       0x5e build/py/asmx86.o
 .note.GNU-stack
                0x0000000000000000        0x0 build/py/asmx86.o
 .text          0x0000000000000000        0x0 build/py/emitnx86.o
 .data          0x0000000000000000        0x0 build/py/emitnx86.o
 .bss           0x0000000000000000        0x0 build/py/emitnx86.o
 .debug_info    0x0000000000000000       0x87 build/py/emitnx86.o
 .debug_abbrev  0x0000000000000000       0x26 build/py/emitnx86.o
 .debug_aranges
                0x0000000000000000       0x20 build/py/emitnx86.o
 .debug_line    0x0000000000000000       0x1d build/py/emitnx86.o
 .debug_str     0x0000000000000000      0x160 build/py/emitnx86.o
 .comment       0x0000000000000000       0x5e build/py/emitnx86.o
 .note.GNU-stack
                0x0000000000000000        0x0 build/py/emitnx86.o
 .text          0x0000000000000000        0x0 build/py/asmthumb.o
 .data          0x0000000000000000        0x0 build/py/asmthumb.o
 .bss           0x0000000000000000        0x0 build/py/asmthumb.o
 .debug_info    0x0000000000000000       0x80 build/py/asmthumb.o
 .debug_abbrev  0x0000000000000000       0x26 build/py/asmthumb.o
 .debug_aranges
                0x0000000000000000       0x20 build/py/asmthumb.o
 .debug_line    0x0000000000000000       0x1d build/py/asmthumb.o
 .debug_str     0x0000000000000000      0x15a build/py/asmthumb.o
 .comment       0x0000000000000000       0x5e build/py/asmthumb.o
 .note.GNU-stack
                0x0000000000000000        0x0 build/py/asmthumb.o
 .text          0x0000000000000000        0x0 build/py/emitnthumb.o
 .data          0x0000000000000000        0x0 build/py/emitnthumb.o
 .bss           0x0000000000000000        0x0 build/py/emitnthumb.o
 .debug_info    0x0000000000000000       0x80 build/py/emitnthumb.o
 .debug_abbrev  0x0000000000000000       0x26 build/py/emitnthumb.o
 .debug_aranges
                0x0000000000000000       0x20 build/py/emitnthumb.o
 .debug_line    0x0000000000000000       0x1d build/py/emitnthumb.o
 .debug_str     0x0000000000000000      0x15c build/py/emitnthumb.o
 .comment       0x0000000000000000       0x5e build/py/emitnthumb.o
 .note.GNU-stack
                0x0000000000000000        0x0 build/py/emitnthumb.o
 .text          0x0000000000000000        0x0 build/py/emitinlinethumb.o
 .data          0x0000000000000000        0x0 build/py/emitinlinethumb.o
 .bss           0x0000000000000000        0x0 build/py/emitinlinethumb.o
 .debug_info    0x0000000000000000       0x87 build/py/emitinlinethumb.o
 .debug_abbrev  0x0000000000000000       0x26 build/py/emitinlinethumb.o
 .debug_aranges
                0x0000000000000000       0x20 build/py/emitinlinethumb.o
 .debug_line    0x0000000000000000       0x1d build/py/emitinlinethumb.o
 .debug_str     0x0000000000000000      0x167 build/py/emitinlinethumb.o
 .comment       0x0000000000000000       0x5e build/py/emitinlinethumb.o
 .note.GNU-stack
                0x0000000000000000        0x0 build/py/emitinlinethumb.o
 .text          0x0000000000000000        0x0 build/py/asmarm.o
 .data          0x0000000000000000        0x0 build/py/asmarm.o
 .bss           0x0000000000000000        0x0 build/py/asmarm.o
 .debug_info    0x0000000000000000       0x80 build/py/asmarm.o
 .debug_abbrev  0x0000000000000000       0x26 build/py/asmarm.o
 .debug_aranges
                0x0000000000000000       0x20 build/py/asmarm.o
 .debug_line    0x0000000000000000       0x1d build/py/asmarm.o
 .debug_str     0x0000000000000000      0x158 build/py/asmarm.o
 .comment       0x0000000000000000       0x5e build/py/asmarm.o
 .note.GNU-stack
                0x0000000000000000        0x0 build/py/asmarm.o
 .text          0x0000000000000000        0x0 build/py/emitnarm.o
 .data          0x0000000000000000        0x0 build/py/emitnarm.o
 .bss           0x0000000000000000        0x0 build/py/emitnarm.o
 .debug_info    0x0000000000000000       0x80 build/py/emitnarm.o
 .debug_abbrev  0x0000000000000000       0x26 build/py/emitnarm.o
 .debug_aranges
                0x0000000000000000       0x20 build/py/emitnarm.o
 .debug_line    0x0000000000000000       0x1d build/py/emitnarm.o
 .debug_str     0x0000000000000000      0x15a build/py/emitnarm.o
 .comment       0x0000000000000000       0x5e build/py/emitnarm.o
 .note.GNU-stack
                0x0000000000000000        0x0 build/py/emitnarm.o
 .text          0x0000000000000000        0x0 build/py/asmxtensa.o
 .data          0x0000000000000000        0x0 build/py/asmxtensa.o
 .bss           0x0000000000000000        0x0 build/py/asmxtensa.o
 .debug_info    0x0000000000000000       0x87 build/py/asmxtensa.o
 .debug_abbrev  0x0000000000000000       0x26 build/py/asmxtensa.o
 .debug_aranges
                0x0000000000000000       0x20 build/py/asmxtensa.o
 .debug_line    0x0000000000000000       0x1d build/py/asmxtensa.o
 .debug_str     0x0000000000000000      0x161 build/py/asmxtensa.o
 .comment       0x0000000000000000       0x5e build/py/asmxtensa.o
 .note.GNU-stack
                0x0000000000000000        0x0 build/py/asmxtensa.o
 .text          0x0000000000000000        0x0 build/py/emitnxtensa.o
 .data          0x0000000000000000        0x0 build/py/emitnxtensa.o
 .bss           0x0000000000000000        0x0 build/py/emitnxtensa.o
 .debug_info    0x0000000000000000       0x80 build/py/emitnxtensa.o
 .debug_abbrev  0x0000000000000000       0x26 build/py/emitnxtensa.o
 .debug_aranges
                0x0000000000000000       0x20 build/py/emitnxtensa.o
 .debug_line    0x0000000000000000       0x1d build/py/emitnxtensa.o
 .debug_str     0x0000000000000000      0x15d build/py/emitnxtensa.o
 .comment       0x0000000000000000       0x5e build/py/emitnxtensa.o
 .note.GNU-stack
                0x0000000000000000        0x0 build/py/emitnxtensa.o
 .text          0x0000000000000000        0x0 build/py/emitinlinextensa.o
 .data          0x0000000000000000        0x0 build/py/emitinlinextensa.o
 .bss           0x0000000000000000        0x0 build/py/emitinlinextensa.o
 .debug_info    0x0000000000000000       0x87 build/py/emitinlinextensa.o
 .debug_abbrev  0x0000000000000000       0x26 build/py/emitinlinextensa.o
 .debug_aranges
                0x0000000000000000       0x20 build/py/emitinlinextensa.o
 .debug_line    0x0000000000000000       0x1d build/py/emitinlinextensa.o
 .debug_str     0x0000000000000000      0x168 build/py/emitinlinextensa.o
 .comment       0x0000000000000000       0x5e build/py/emitinlinextensa.o
 .note.GNU-stack
                0x0000000000000000        0x0 build/py/emitinlinextensa.o
 .text          0x0000000000000000        0x0 build/py/emitnxtensawin.o
 .data          0x0000000000000000        0x0 build/py/emitnxtensawin.o
 .bss           0x0000000000000000        0x0 build/py/emitnxtensawin.o
 .debug_info    0x0000000000000000       0x80 build/py/emitnxtensawin.o
 .debug_abbrev  0x0000000000000000       0x26 build/py/emitnxtensawin.o
 .debug_aranges
                0x0000000000000000       0x20 build/py/emitnxtensawin.o
 .debug_line    0x0000000000000000       0x1d build/py/emitnxtensawin.o
 .debug_str     0x0000000000000000      0x160 build/py/emitnxtensawin.o
 .comment       0x0000000000000000       0x5e build/py/emitnxtensawin.o
 .note.GNU-stack
                0x0000000000000000        0x0 build/py/emitnxtensawin.o
 .text          0x0000000000000000        0x0 build/py/formatfloat.o
 .data          0x0000000000000000        0x0 build/py/formatfloat.o
 .bss           0x0000000000000000        0x0 build/py/formatfloat.o
 .debug_info    0x0000000000000000       0x87 build/py/formatfloat.o
 .debug_abbrev  0x0000000000000000       0x26 build/py/formatfloat.o
 .debug_aranges
                0x0000000000000000       0x20 build/py/formatfloat.o
 .debug_line    0x0000000000000000       0x1d build/py/formatfloat.o
 .debug_str     0x0000000000000000      0x163 build/py/formatfloat.o
 .comment       0x0000000000000000       0x5e build/py/formatfloat.o
 .note.GNU-stack
                0x0000000000000000        0x0 build/py/formatfloat.o
 .text          0x0000000000000000        0x0 build/py/parsenumbase.o
 .data          0x0000000000000000        0x0 build/py/parsenumbase.o
 .bss           0x0000000000000000        0x0 build/py/parsenumbase.o
 .eh_frame      0x0000000000000000       0x28 build/py/parsenumbase.o
 .text          0x0000000000000000        0x0 build/py/parsenum.o
 .data          0x0000000000000000        0x0 build/py/parsenum.o
 .bss           0x0000000000000000        0x0 build/py/parsenum.o
 .eh_frame      0x0000000000000000       0x88 build/py/parsenum.o
 .text          0x0000000000000000        0x0 build/py/emitglue.o
 .data          0x0000000000000000        0x0 build/py/emitglue.o
 .bss           0x0000000000000000        0x0 build/py/emitglue.o
 .eh_frame      0x0000000000000000       0x98 build/py/emitglue.o
 .text          0x0000000000000000        0x0 build/py/persistentcode.o
 .data          0x0000000000000000        0x0 build/py/persistentcode.o
 .bss           0x0000000000000000        0x0 build/py/persistentcode.o
 .debug_info    0x0000000000000000       0x87 build/py/persistentcode.o
 .debug_abbrev  0x0000000000000000       0x26 build/py/persistentcode.o
 .debug_aranges
                0x0000000000000000       0x20 build/py/persistentcode.o
 .debug_line    0x0000000000000000       0x1d build/py/persistentcode.o
 .debug_str     0x0000000000000000      0x166 build/py/persistentcode.o
 .comment       0x0000000000000000       0x5e build/py/persistentcode.o
 .note.GNU-stack
                0x0000000000000000        0x0 build/py/persistentcode.o
 .text          0x0000000000000000        0x0 build/py/runtime.o
 .data          0x0000000000000000        0x0 build/py/runtime.o
 .bss           0x0000000000000000        0x0 build/py/runtime.o
 .text.mp_call_function_2
                0x0000000000000000       0x24 build/py/runtime.o
 .rodata.mp_raise_OSError_with_filename.str1.1
                0x0000000000000000        0xe build/py/runtime.o
 .text.mp_raise_OSError_with_filename
                0x0000000000000000       0x64 build/py/runtime.o
 .eh_frame      0x0000000000000000      0x6a0 build/py/runtime.o
 .text          0x0000000000000000        0x0 build/py/runtime_utils.o
 .data          0x0000000000000000        0x0 build/py/runtime_utils.o
 .bss           0x0000000000000000        0x0 build/py/runtime_utils.o
 .text.mp_call_function_1_protected
                0x0000000000000000       0x5c build/py/runtime_utils.o
 .text.mp_call_function_2_protected
                0x0000000000000000       0x6c build/py/runtime_utils.o
 .debug_info    0x0000000000000000      0x37e build/py/runtime_utils.o
 .debug_abbrev  0x0000000000000000      0x167 build/py/runtime_utils.o
 .debug_loc     0x0000000000000000      0x2a7 build/py/runtime_utils.o
 .debug_aranges
                0x0000000000000000       0x40 build/py/runtime_utils.o
 .debug_ranges  0x0000000000000000       0x30 build/py/runtime_utils.o
 .debug_line    0x0000000000000000      0x12d build/py/runtime_utils.o
 .debug_str     0x0000000000000000      0x273 build/py/runtime_utils.o
 .comment       0x0000000000000000       0x5e build/py/runtime_utils.o
 .note.GNU-stack
                0x0000000000000000        0x0 build/py/runtime_utils.o
 .eh_frame      0x0000000000000000       0x68 build/py/runtime_utils.o
 .text          0x0000000000000000        0x0 build/py/scheduler.o
 .data          0x0000000000000000        0x0 build/py/scheduler.o
 .bss           0x0000000000000000        0x0 build/py/scheduler.o
 .text.mp_sched_exception
                0x0000000000000000       0x10 build/py/scheduler.o
 .eh_frame      0x0000000000000000       0x48 build/py/scheduler.o
 .text          0x0000000000000000        0x0 build/py/nativeglue.o
 .data          0x0000000000000000        0x0 build/py/nativeglue.o
 .bss           0x0000000000000000        0x0 build/py/nativeglue.o
 .debug_info    0x0000000000000000       0x87 build/py/nativeglue.o
 .debug_abbrev  0x0000000000000000       0x26 build/py/nativeglue.o
 .debug_aranges
                0x0000000000000000       0x20 build/py/nativeglue.o
 .debug_line    0x0000000000000000       0x1d build/py/nativeglue.o
 .debug_str     0x0000000000000000      0x162 build/py/nativeglue.o
 .comment       0x0000000000000000       0x5e build/py/nativeglue.o
 .note.GNU-stack
                0x0000000000000000        0x0 build/py/nativeglue.o
 .text          0x0000000000000000        0x0 build/py/pairheap.o
 .data          0x0000000000000000        0x0 build/py/pairheap.o
 .bss           0x0000000000000000        0x0 build/py/pairheap.o
 .text.mp_pairheap_meld
                0x0000000000000000       0x8c build/py/pairheap.o
 .text.mp_pairheap_pairing
                0x0000000000000000       0x84 build/py/pairheap.o
 .text.mp_pairheap_delete
                0x0000000000000000       0xe0 build/py/pairheap.o
 .debug_info    0x0000000000000000      0x5ca build/py/pairheap.o
 .debug_abbrev  0x0000000000000000      0x249 build/py/pairheap.o
 .debug_loc     0x0000000000000000      0x86b build/py/pairheap.o
 .debug_aranges
                0x0000000000000000       0x50 build/py/pairheap.o
 .debug_ranges  0x0000000000000000       0xc0 build/py/pairheap.o
 .debug_line    0x0000000000000000      0x2c1 build/py/pairheap.o
 .debug_str     0x0000000000000000      0x348 build/py/pairheap.o
 .comment       0x0000000000000000       0x5e build/py/pairheap.o
 .note.GNU-stack
                0x0000000000000000        0x0 build/py/pairheap.o
 .eh_frame      0x0000000000000000       0xa8 build/py/pairheap.o
 .text          0x0000000000000000        0x0 build/py/ringbuf.o
 .data          0x0000000000000000        0x0 build/py/ringbuf.o
 .bss           0x0000000000000000        0x0 build/py/ringbuf.o
 .text.ringbuf_peek16
                0x0000000000000000       0x4c build/py/ringbuf.o
 .text.ringbuf_get16
                0x0000000000000000       0x3c build/py/ringbuf.o
 .text.ringbuf_put16
                0x0000000000000000       0x68 build/py/ringbuf.o
 .text.ringbuf_get_bytes
                0x0000000000000000       0xbc build/py/ringbuf.o
 .text.ringbuf_put_bytes
                0x0000000000000000       0xb8 build/py/ringbuf.o
 .debug_info    0x0000000000000000      0x465 build/py/ringbuf.o
 .debug_abbrev  0x0000000000000000      0x17d build/py/ringbuf.o
 .debug_loc     0x0000000000000000      0x66a build/py/ringbuf.o
 .debug_aranges
                0x0000000000000000       0x70 build/py/ringbuf.o
 .debug_ranges  0x0000000000000000       0xc0 build/py/ringbuf.o
 .debug_line    0x0000000000000000      0x304 build/py/ringbuf.o
 .debug_str     0x0000000000000000      0x244 build/py/ringbuf.o
 .comment       0x0000000000000000       0x5e build/py/ringbuf.o
 .note.GNU-stack
                0x0000000000000000        0x0 build/py/ringbuf.o
 .eh_frame      0x0000000000000000       0xb8 build/py/ringbuf.o
 .text          0x0000000000000000        0x0 build/py/stackctrl.o
 .data          0x0000000000000000        0x0 build/py/stackctrl.o
 .bss           0x0000000000000000        0x0 build/py/stackctrl.o
 .text.mp_stack_ctrl_init
                0x0000000000000000       0x18 build/py/stackctrl.o
 .text.mp_stack_set_top
                0x0000000000000000        0xc build/py/stackctrl.o
 .text.mp_stack_usage
                0x0000000000000000       0x1c build/py/stackctrl.o
 .debug_info    0x0000000000000000      0x82a build/py/stackctrl.o
 .debug_abbrev  0x0000000000000000      0x1f5 build/py/stackctrl.o
 .debug_aranges
                0x0000000000000000       0x50 build/py/stackctrl.o
 .debug_ranges  0x0000000000000000       0x40 build/py/stackctrl.o
 .debug_line    0x0000000000000000      0x156 build/py/stackctrl.o
 .debug_str     0x0000000000000000      0x742 build/py/stackctrl.o
 .comment       0x0000000000000000       0x5e build/py/stackctrl.o
 .note.GNU-stack
                0x0000000000000000        0x0 build/py/stackctrl.o
 .eh_frame      0x0000000000000000       0x58 build/py/stackctrl.o
 .text          0x0000000000000000        0x0 build/py/argcheck.o
 .data          0x0000000000000000        0x0 build/py/argcheck.o
 .bss           0x0000000000000000        0x0 build/py/argcheck.o
 .text.mp_arg_parse_all_kw_array
                0x0000000000000000       0x64 build/py/argcheck.o
 .eh_frame      0x0000000000000000       0xc0 build/py/argcheck.o
 .text          0x0000000000000000        0x0 build/py/warning.o
 .data          0x0000000000000000        0x0 build/py/warning.o
 .bss           0x0000000000000000        0x0 build/py/warning.o
 .debug_info    0x0000000000000000       0x87 build/py/warning.o
 .debug_abbrev  0x0000000000000000       0x26 build/py/warning.o
 .debug_aranges
                0x0000000000000000       0x20 build/py/warning.o
 .debug_line    0x0000000000000000       0x1d build/py/warning.o
 .debug_str     0x0000000000000000      0x15f build/py/warning.o
 .comment       0x0000000000000000       0x5e build/py/warning.o
 .note.GNU-stack
                0x0000000000000000        0x0 build/py/warning.o
 .text          0x0000000000000000        0x0 build/py/profile.o
 .data          0x0000000000000000        0x0 build/py/profile.o
 .bss           0x0000000000000000        0x0 build/py/profile.o
 .debug_info    0x0000000000000000       0x87 build/py/profile.o
 .debug_abbrev  0x0000000000000000       0x26 build/py/profile.o
 .debug_aranges
                0x0000000000000000       0x20 build/py/profile.o
 .debug_line    0x0000000000000000       0x1d build/py/profile.o
 .debug_str     0x0000000000000000      0x15f build/py/profile.o
 .comment       0x0000000000000000       0x5e build/py/profile.o
 .note.GNU-stack
                0x0000000000000000        0x0 build/py/profile.o
 .text          0x0000000000000000        0x0 build/py/map.o
 .data          0x0000000000000000        0x0 build/py/map.o
 .bss           0x0000000000000000        0x0 build/py/map.o
 .text.mp_map_deinit
                0x0000000000000000       0x38 build/py/map.o
 .eh_frame      0x0000000000000000      0x110 build/py/map.o
 .text          0x0000000000000000        0x0 build/py/obj.o
 .data          0x0000000000000000        0x0 build/py/obj.o
 .bss           0x0000000000000000        0x0 build/py/obj.o
 .text.mp_identity
                0x0000000000000000        0x4 build/py/obj.o
 .text.mp_obj_print
                0x0000000000000000       0x14 build/py/obj.o
 .rodata.mp_obj_get_array_fixed_n.str1.1
                0x0000000000000000        0x6 build/py/obj.o
 .text.mp_obj_get_array_fixed_n
                0x0000000000000000       0x3c build/py/obj.o
 .rodata.mp_identity_obj
                0x0000000000000000       0x10 build/py/obj.o
 .eh_frame      0x0000000000000000      0x330 build/py/obj.o
 .text          0x0000000000000000        0x0 build/py/objarray.o
 .data          0x0000000000000000        0x0 build/py/objarray.o
 .bss           0x0000000000000000        0x0 build/py/objarray.o
 .debug_info    0x0000000000000000       0x87 build/py/objarray.o
 .debug_abbrev  0x0000000000000000       0x26 build/py/objarray.o
 .debug_aranges
                0x0000000000000000       0x20 build/py/objarray.o
 .debug_line    0x0000000000000000       0x1d build/py/objarray.o
 .debug_str     0x0000000000000000      0x160 build/py/objarray.o
 .comment       0x0000000000000000       0x5e build/py/objarray.o
 .note.GNU-stack
                0x0000000000000000        0x0 build/py/objarray.o
 .text          0x0000000000000000        0x0 build/py/objattrtuple.o
 .data          0x0000000000000000        0x0 build/py/objattrtuple.o
 .bss           0x0000000000000000        0x0 build/py/objattrtuple.o
 .debug_info    0x0000000000000000       0x87 build/py/objattrtuple.o
 .debug_abbrev  0x0000000000000000       0x26 build/py/objattrtuple.o
 .debug_aranges
                0x0000000000000000       0x20 build/py/objattrtuple.o
 .debug_line    0x0000000000000000       0x1d build/py/objattrtuple.o
 .debug_str     0x0000000000000000      0x164 build/py/objattrtuple.o
 .comment       0x0000000000000000       0x5e build/py/objattrtuple.o
 .note.GNU-stack
                0x0000000000000000        0x0 build/py/objattrtuple.o
 .text          0x0000000000000000        0x0 build/py/objbool.o
 .data          0x0000000000000000        0x0 build/py/objbool.o
 .bss           0x0000000000000000        0x0 build/py/objbool.o
 .eh_frame      0x0000000000000000       0x78 build/py/objbool.o
 .text          0x0000000000000000        0x0 build/py/objboundmeth.o
 .data          0x0000000000000000        0x0 build/py/objboundmeth.o
 .bss           0x0000000000000000        0x0 build/py/objboundmeth.o
 .eh_frame      0x0000000000000000       0x90 build/py/objboundmeth.o
 .text          0x0000000000000000        0x0 build/py/objcell.o
 .data          0x0000000000000000        0x0 build/py/objcell.o
 .bss           0x0000000000000000        0x0 build/py/objcell.o
 .eh_frame      0x0000000000000000       0x38 build/py/objcell.o
 .text          0x0000000000000000        0x0 build/py/objclosure.o
 .data          0x0000000000000000        0x0 build/py/objclosure.o
 .bss           0x0000000000000000        0x0 build/py/objclosure.o
 .eh_frame      0x0000000000000000       0x88 build/py/objclosure.o
 .text          0x0000000000000000        0x0 build/py/objcomplex.o
 .data          0x0000000000000000        0x0 build/py/objcomplex.o
 .bss           0x0000000000000000        0x0 build/py/objcomplex.o
 .debug_info    0x0000000000000000       0x87 build/py/objcomplex.o
 .debug_abbrev  0x0000000000000000       0x26 build/py/objcomplex.o
 .debug_aranges
                0x0000000000000000       0x20 build/py/objcomplex.o
 .debug_line    0x0000000000000000       0x1d build/py/objcomplex.o
 .debug_str     0x0000000000000000      0x162 build/py/objcomplex.o
 .comment       0x0000000000000000       0x5e build/py/objcomplex.o
 .note.GNU-stack
                0x0000000000000000        0x0 build/py/objcomplex.o
 .text          0x0000000000000000        0x0 build/py/objdeque.o
 .data          0x0000000000000000        0x0 build/py/objdeque.o
 .bss           0x0000000000000000        0x0 build/py/objdeque.o
 .debug_info    0x0000000000000000       0x80 build/py/objdeque.o
 .debug_abbrev  0x0000000000000000       0x26 build/py/objdeque.o
 .debug_aranges
                0x0000000000000000       0x20 build/py/objdeque.o
 .debug_line    0x0000000000000000       0x1d build/py/objdeque.o
 .debug_str     0x0000000000000000      0x15a build/py/objdeque.o
 .comment       0x0000000000000000       0x5e build/py/objdeque.o
 .note.GNU-stack
                0x0000000000000000        0x0 build/py/objdeque.o
 .text          0x0000000000000000        0x0 build/py/objdict.o
 .data          0x0000000000000000        0x0 build/py/objdict.o
 .bss           0x0000000000000000        0x0 build/py/objdict.o
 .rodata.mp_const_empty_dict_obj
                0x0000000000000000       0x20 build/py/objdict.o
 .eh_frame      0x0000000000000000      0x400 build/py/objdict.o
 .text          0x0000000000000000        0x0 build/py/objenumerate.o
 .data          0x0000000000000000        0x0 build/py/objenumerate.o
 .bss           0x0000000000000000        0x0 build/py/objenumerate.o
 .debug_info    0x0000000000000000       0x87 build/py/objenumerate.o
 .debug_abbrev  0x0000000000000000       0x26 build/py/objenumerate.o
 .debug_aranges
                0x0000000000000000       0x20 build/py/objenumerate.o
 .debug_line    0x0000000000000000       0x1d build/py/objenumerate.o
 .debug_str     0x0000000000000000      0x164 build/py/objenumerate.o
 .comment       0x0000000000000000       0x5e build/py/objenumerate.o
 .note.GNU-stack
                0x0000000000000000        0x0 build/py/objenumerate.o
 .text          0x0000000000000000        0x0 build/py/objexcept.o
 .data          0x0000000000000000        0x0 build/py/objexcept.o
 .bss           0x0000000000000000        0x0 build/py/objexcept.o
 .text.mp_obj_new_exception_args
                0x0000000000000000        0xc build/py/objexcept.o
 .text.mp_obj_new_exception_msg_varg
                0x0000000000000000       0x74 build/py/objexcept.o
 .text.mp_obj_exception_clear_traceback
                0x0000000000000000       0x18 build/py/objexcept.o
 .eh_frame      0x0000000000000000      0x310 build/py/objexcept.o
 .text          0x0000000000000000        0x0 build/py/objfilter.o
 .data          0x0000000000000000        0x0 build/py/objfilter.o
 .bss           0x0000000000000000        0x0 build/py/objfilter.o
 .debug_info    0x0000000000000000       0x87 build/py/objfilter.o
 .debug_abbrev  0x0000000000000000       0x26 build/py/objfilter.o
 .debug_aranges
                0x0000000000000000       0x20 build/py/objfilter.o
 .debug_line    0x0000000000000000       0x1d build/py/objfilter.o
 .debug_str     0x0000000000000000      0x161 build/py/objfilter.o
 .comment       0x0000000000000000       0x5e build/py/objfilter.o
 .note.GNU-stack
                0x0000000000000000        0x0 build/py/objfilter.o
 .text          0x0000000000000000        0x0 build/py/objfloat.o
 .data          0x0000000000000000        0x0 build/py/objfloat.o
 .bss           0x0000000000000000        0x0 build/py/objfloat.o
 .debug_info    0x0000000000000000       0x87 build/py/objfloat.o
 .debug_abbrev  0x0000000000000000       0x26 build/py/objfloat.o
 .debug_aranges
                0x0000000000000000       0x20 build/py/objfloat.o
 .debug_line    0x0000000000000000       0x1d build/py/objfloat.o
 .debug_str     0x0000000000000000      0x160 build/py/objfloat.o
 .comment       0x0000000000000000       0x5e build/py/objfloat.o
 .note.GNU-stack
                0x0000000000000000        0x0 build/py/objfloat.o
 .text          0x0000000000000000        0x0 build/py/objfun.o
 .data          0x0000000000000000        0x0 build/py/objfun.o
 .bss           0x0000000000000000        0x0 build/py/objfun.o
 .eh_frame      0x0000000000000000      0x178 build/py/objfun.o
 .text          0x0000000000000000        0x0 build/py/objgenerator.o
 .data          0x0000000000000000        0x0 build/py/objgenerator.o
 .bss           0x0000000000000000        0x0 build/py/objgenerator.o
 .eh_frame      0x0000000000000000      0x120 build/py/objgenerator.o
 .text          0x0000000000000000        0x0 build/py/objgetitemiter.o
 .data          0x0000000000000000        0x0 build/py/objgetitemiter.o
 .bss           0x0000000000000000        0x0 build/py/objgetitemiter.o
 .eh_frame      0x0000000000000000       0x50 build/py/objgetitemiter.o
 .text          0x0000000000000000        0x0 build/py/objint.o
 .data          0x0000000000000000        0x0 build/py/objint.o
 .bss           0x0000000000000000        0x0 build/py/objint.o
 .text.mp_obj_new_int_from_ull
                0x0000000000000000       0x1c build/py/objint.o
 .eh_frame      0x0000000000000000      0x230 build/py/objint.o
 .text          0x0000000000000000        0x0 build/py/objint_longlong.o
 .data          0x0000000000000000        0x0 build/py/objint_longlong.o
 .bss           0x0000000000000000        0x0 build/py/objint_longlong.o
 .debug_info    0x0000000000000000       0x87 build/py/objint_longlong.o
 .debug_abbrev  0x0000000000000000       0x26 build/py/objint_longlong.o
 .debug_aranges
                0x0000000000000000       0x20 build/py/objint_longlong.o
 .debug_line    0x0000000000000000       0x1d build/py/objint_longlong.o
 .debug_str     0x0000000000000000      0x167 build/py/objint_longlong.o
 .comment       0x0000000000000000       0x5e build/py/objint_longlong.o
 .note.GNU-stack
                0x0000000000000000        0x0 build/py/objint_longlong.o
 .text          0x0000000000000000        0x0 build/py/objint_mpz.o
 .data          0x0000000000000000        0x0 build/py/objint_mpz.o
 .bss           0x0000000000000000        0x0 build/py/objint_mpz.o
 .debug_info    0x0000000000000000       0x87 build/py/objint_mpz.o
 .debug_abbrev  0x0000000000000000       0x26 build/py/objint_mpz.o
 .debug_aranges
                0x0000000000000000       0x20 build/py/objint_mpz.o
 .debug_line    0x0000000000000000       0x1d build/py/objint_mpz.o
 .debug_str     0x0000000000000000      0x162 build/py/objint_mpz.o
 .comment       0x0000000000000000       0x5e build/py/objint_mpz.o
 .note.GNU-stack
                0x0000000000000000        0x0 build/py/objint_mpz.o
 .text          0x0000000000000000        0x0 build/py/objlist.o
 .data          0x0000000000000000        0x0 build/py/objlist.o
 .bss           0x0000000000000000        0x0 build/py/objlist.o
 .eh_frame      0x0000000000000000      0x378 build/py/objlist.o
 .text          0x0000000000000000        0x0 build/py/objmap.o
 .data          0x0000000000000000        0x0 build/py/objmap.o
 .bss           0x0000000000000000        0x0 build/py/objmap.o
 .eh_frame      0x0000000000000000       0x80 build/py/objmap.o
 .text          0x0000000000000000        0x0 build/py/objmodule.o
 .data          0x0000000000000000        0x0 build/py/objmodule.o
 .bss           0x0000000000000000        0x0 build/py/objmodule.o
 .text.mp_module_generic_attr
                0x0000000000000000       0x44 build/py/objmodule.o
 .eh_frame      0x0000000000000000       0xc8 build/py/objmodule.o
 .text          0x0000000000000000        0x0 build/py/objobject.o
 .data          0x0000000000000000        0x0 build/py/objobject.o
 .bss           0x0000000000000000        0x0 build/py/objobject.o
 .eh_frame      0x0000000000000000       0x38 build/py/objobject.o
 .text          0x0000000000000000        0x0 build/py/objpolyiter.o
 .data          0x0000000000000000        0x0 build/py/objpolyiter.o
 .bss           0x0000000000000000        0x0 build/py/objpolyiter.o
 .eh_frame      0x0000000000000000       0x28 build/py/objpolyiter.o
 .text          0x0000000000000000        0x0 build/py/objproperty.o
 .data          0x0000000000000000        0x0 build/py/objproperty.o
 .bss           0x0000000000000000        0x0 build/py/objproperty.o
 .debug_info    0x0000000000000000       0x87 build/py/objproperty.o
 .debug_abbrev  0x0000000000000000       0x26 build/py/objproperty.o
 .debug_aranges
                0x0000000000000000       0x20 build/py/objproperty.o
 .debug_line    0x0000000000000000       0x1d build/py/objproperty.o
 .debug_str     0x0000000000000000      0x163 build/py/objproperty.o
 .comment       0x0000000000000000       0x5e build/py/objproperty.o
 .note.GNU-stack
                0x0000000000000000        0x0 build/py/objproperty.o
 .text          0x0000000000000000        0x0 build/py/objnone.o
 .data          0x0000000000000000        0x0 build/py/objnone.o
 .bss           0x0000000000000000        0x0 build/py/objnone.o
 .eh_frame      0x0000000000000000       0x28 build/py/objnone.o
 .text          0x0000000000000000        0x0 build/py/objnamedtuple.o
 .data          0x0000000000000000        0x0 build/py/objnamedtuple.o
 .bss           0x0000000000000000        0x0 build/py/objnamedtuple.o
 .debug_info    0x0000000000000000       0x87 build/py/objnamedtuple.o
 .debug_abbrev  0x0000000000000000       0x26 build/py/objnamedtuple.o
 .debug_aranges
                0x0000000000000000       0x20 build/py/objnamedtuple.o
 .debug_line    0x0000000000000000       0x1d build/py/objnamedtuple.o
 .debug_str     0x0000000000000000      0x165 build/py/objnamedtuple.o
 .comment       0x0000000000000000       0x5e build/py/objnamedtuple.o
 .note.GNU-stack
                0x0000000000000000        0x0 build/py/objnamedtuple.o
 .text          0x0000000000000000        0x0 build/py/objrange.o
 .data          0x0000000000000000        0x0 build/py/objrange.o
 .bss           0x0000000000000000        0x0 build/py/objrange.o
 .eh_frame      0x0000000000000000       0xd0 build/py/objrange.o
 .text          0x0000000000000000        0x0 build/py/objreversed.o
 .data          0x0000000000000000        0x0 build/py/objreversed.o
 .bss           0x0000000000000000        0x0 build/py/objreversed.o
 .debug_info    0x0000000000000000       0x87 build/py/objreversed.o
 .debug_abbrev  0x0000000000000000       0x26 build/py/objreversed.o
 .debug_aranges
                0x0000000000000000       0x20 build/py/objreversed.o
 .debug_line    0x0000000000000000       0x1d build/py/objreversed.o
 .debug_str     0x0000000000000000      0x163 build/py/objreversed.o
 .comment       0x0000000000000000       0x5e build/py/objreversed.o
 .note.GNU-stack
                0x0000000000000000        0x0 build/py/objreversed.o
 .text          0x0000000000000000        0x0 build/py/objset.o
 .data          0x0000000000000000        0x0 build/py/objset.o
 .bss           0x0000000000000000        0x0 build/py/objset.o
 .debug_info    0x0000000000000000       0x87 build/py/objset.o
 .debug_abbrev  0x0000000000000000       0x26 build/py/objset.o
 .debug_aranges
                0x0000000000000000       0x20 build/py/objset.o
 .debug_line    0x0000000000000000       0x1d build/py/objset.o
 .debug_str     0x0000000000000000      0x15e build/py/objset.o
 .comment       0x0000000000000000       0x5e build/py/objset.o
 .note.GNU-stack
                0x0000000000000000        0x0 build/py/objset.o
 .text          0x0000000000000000        0x0 build/py/objsingleton.o
 .data          0x0000000000000000        0x0 build/py/objsingleton.o
 .bss           0x0000000000000000        0x0 build/py/objsingleton.o
 .eh_frame      0x0000000000000000       0x28 build/py/objsingleton.o
 .text          0x0000000000000000        0x0 build/py/objslice.o
 .data          0x0000000000000000        0x0 build/py/objslice.o
 .bss           0x0000000000000000        0x0 build/py/objslice.o
 .debug_info    0x0000000000000000       0x87 build/py/objslice.o
 .debug_abbrev  0x0000000000000000       0x26 build/py/objslice.o
 .debug_aranges
                0x0000000000000000       0x20 build/py/objslice.o
 .debug_line    0x0000000000000000       0x1d build/py/objslice.o
 .debug_str     0x0000000000000000      0x160 build/py/objslice.o
 .comment       0x0000000000000000       0x5e build/py/objslice.o
 .note.GNU-stack
                0x0000000000000000        0x0 build/py/objslice.o
 .text          0x0000000000000000        0x0 build/py/objstr.o
 .data          0x0000000000000000        0x0 build/py/objstr.o
 .bss           0x0000000000000000        0x0 build/py/objstr.o
 .text.str_index_to_ptr
                0x0000000000000000       0x30 build/py/objstr.o
 .text.mp_obj_str_set_data
                0x0000000000000000       0x30 build/py/objstr.o
 .text.mp_obj_str_intern
                0x0000000000000000       0x3c build/py/objstr.o
 .eh_frame      0x0000000000000000      0x870 build/py/objstr.o
 .text          0x0000000000000000        0x0 build/py/objstrunicode.o
 .data          0x0000000000000000        0x0 build/py/objstrunicode.o
 .bss           0x0000000000000000        0x0 build/py/objstrunicode.o
 .debug_info    0x0000000000000000       0x87 build/py/objstrunicode.o
 .debug_abbrev  0x0000000000000000       0x26 build/py/objstrunicode.o
 .debug_aranges
                0x0000000000000000       0x20 build/py/objstrunicode.o
 .debug_line    0x0000000000000000       0x1d build/py/objstrunicode.o
 .debug_str     0x0000000000000000      0x165 build/py/objstrunicode.o
 .comment       0x0000000000000000       0x5e build/py/objstrunicode.o
 .note.GNU-stack
                0x0000000000000000        0x0 build/py/objstrunicode.o
 .text          0x0000000000000000        0x0 build/py/objstringio.o
 .data          0x0000000000000000        0x0 build/py/objstringio.o
 .bss           0x0000000000000000        0x0 build/py/objstringio.o
 .debug_info    0x0000000000000000       0x87 build/py/objstringio.o
 .debug_abbrev  0x0000000000000000       0x26 build/py/objstringio.o
 .debug_aranges
                0x0000000000000000       0x20 build/py/objstringio.o
 .debug_line    0x0000000000000000       0x1d build/py/objstringio.o
 .debug_str     0x0000000000000000      0x163 build/py/objstringio.o
 .comment       0x0000000000000000       0x5e build/py/objstringio.o
 .note.GNU-stack
                0x0000000000000000        0x0 build/py/objstringio.o
 .text          0x0000000000000000        0x0 build/py/objtuple.o
 .data          0x0000000000000000        0x0 build/py/objtuple.o
 .bss           0x0000000000000000        0x0 build/py/objtuple.o
 .eh_frame      0x0000000000000000      0x198 build/py/objtuple.o
 .text          0x0000000000000000        0x0 build/py/objtype.o
 .data          0x0000000000000000        0x0 build/py/objtype.o
 .bss           0x0000000000000000        0x0 build/py/objtype.o
 .eh_frame      0x0000000000000000      0x468 build/py/objtype.o
 .text          0x0000000000000000        0x0 build/py/objzip.o
 .data          0x0000000000000000        0x0 build/py/objzip.o
 .bss           0x0000000000000000        0x0 build/py/objzip.o
 .eh_frame      0x0000000000000000       0x80 build/py/objzip.o
 .text          0x0000000000000000        0x0 build/py/opmethods.o
 .data          0x0000000000000000        0x0 build/py/opmethods.o
 .bss           0x0000000000000000        0x0 build/py/opmethods.o
 .text.op_contains
                0x0000000000000000       0x44 build/py/opmethods.o
 .rodata.mp_op_contains_obj
                0x0000000000000000       0x10 build/py/opmethods.o
 .eh_frame      0x0000000000000000       0xa8 build/py/opmethods.o
 .text          0x0000000000000000        0x0 build/py/sequence.o
 .data          0x0000000000000000        0x0 build/py/sequence.o
 .bss           0x0000000000000000        0x0 build/py/sequence.o
 .text.mp_seq_extract_slice
                0x0000000000000000       0x88 build/py/sequence.o
 .eh_frame      0x0000000000000000      0x170 build/py/sequence.o
 .text          0x0000000000000000        0x0 build/py/stream.o
 .data          0x0000000000000000        0x0 build/py/stream.o
 .bss           0x0000000000000000        0x0 build/py/stream.o
 .text.mp_stream_close
                0x0000000000000000       0x44 build/py/stream.o
 .text.stream_flush
                0x0000000000000000       0x44 build/py/stream.o
 .text.stream_unbuffered_readlines
                0x0000000000000000       0x5c build/py/stream.o
 .text.stream_seek
                0x0000000000000000       0x94 build/py/stream.o
 .text.stream_tell
                0x0000000000000000       0x2c build/py/stream.o
 .text.stream_ioctl
                0x0000000000000000       0xa0 build/py/stream.o
 .text.mp_stream_rw
                0x0000000000000000       0xa4 build/py/stream.o
 .text.stream_read_generic
                0x0000000000000000      0x13c build/py/stream.o
 .text.stream_read
                0x0000000000000000        0x8 build/py/stream.o
 .text.stream_read1
                0x0000000000000000        0x8 build/py/stream.o
 .text.stream_readinto
                0x0000000000000000       0x80 build/py/stream.o
 .rodata.mp_get_stream_raise.str1.1
                0x0000000000000000       0x14 build/py/stream.o
 .text.mp_get_stream_raise
                0x0000000000000000       0x6c build/py/stream.o
 .text.mp_stream_write
                0x0000000000000000       0x34 build/py/stream.o
 .text.stream_write_method
                0x0000000000000000       0xa4 build/py/stream.o
 .text.stream_write1_method
                0x0000000000000000       0x3c build/py/stream.o
 .text.mp_stream_write_adaptor
                0x0000000000000000        0x8 build/py/stream.o
 .rodata.mp_stream_close_obj
                0x0000000000000000       0x10 build/py/stream.o
 .rodata.mp_stream_flush_obj
                0x0000000000000000       0x10 build/py/stream.o
 .rodata.mp_stream_ioctl_obj
                0x0000000000000000       0x18 build/py/stream.o
 .rodata.mp_stream_read1_obj
                0x0000000000000000       0x18 build/py/stream.o
 .rodata.mp_stream_read_obj
                0x0000000000000000       0x18 build/py/stream.o
 .rodata.mp_stream_readinto_obj
                0x0000000000000000       0x18 build/py/stream.o
 .rodata.mp_stream_seek_obj
                0x0000000000000000       0x18 build/py/stream.o
 .rodata.mp_stream_tell_obj
                0x0000000000000000       0x10 build/py/stream.o
 .rodata.mp_stream_unbuffered_readline_obj
                0x0000000000000000       0x18 build/py/stream.o
 .rodata.mp_stream_unbuffered_readlines_obj
                0x0000000000000000       0x10 build/py/stream.o
 .rodata.mp_stream_write1_obj
                0x0000000000000000       0x10 build/py/stream.o
 .rodata.mp_stream_write_obj
                0x0000000000000000       0x18 build/py/stream.o
 .eh_frame      0x0000000000000000      0x2b0 build/py/stream.o
 .text          0x0000000000000000        0x0 build/py/binary.o
 .data          0x0000000000000000        0x0 build/py/binary.o
 .bss           0x0000000000000000        0x0 build/py/binary.o
 .rodata.mp_binary_get_size.str1.1
                0x0000000000000000        0xb build/py/binary.o
 .text.mp_binary_get_size
                0x0000000000000000      0x154 build/py/binary.o
 .rodata.mp_binary_get_size
                0x0000000000000000       0x48 build/py/binary.o
 .text.mp_binary_get_val_array
                0x0000000000000000       0xc8 build/py/binary.o
 .rodata.mp_binary_get_val_array
                0x0000000000000000       0x1b build/py/binary.o
 .text.mp_binary_get_int
                0x0000000000000000       0x5c build/py/binary.o
 .text.mp_binary_get_val
                0x0000000000000000       0xfc build/py/binary.o
 .text.mp_binary_set_val
                0x0000000000000000       0xc4 build/py/binary.o
 .text.mp_binary_set_val_array_from_int
                0x0000000000000000       0x94 build/py/binary.o
 .rodata.mp_binary_set_val_array_from_int
                0x0000000000000000       0x1b build/py/binary.o
 .text.mp_binary_set_val_array
                0x0000000000000000       0x60 build/py/binary.o
 .eh_frame      0x0000000000000000      0x138 build/py/binary.o
 .text          0x0000000000000000        0x0 build/py/builtinimport.o
 .data          0x0000000000000000        0x0 build/py/builtinimport.o
 .bss           0x0000000000000000        0x0 build/py/builtinimport.o
 .eh_frame      0x0000000000000000      0x148 build/py/builtinimport.o
 .text          0x0000000000000000        0x0 build/py/builtinevex.o
 .data          0x0000000000000000        0x0 build/py/builtinevex.o
 .bss           0x0000000000000000        0x0 build/py/builtinevex.o
 .eh_frame      0x0000000000000000       0x68 build/py/builtinevex.o
 .text          0x0000000000000000        0x0 build/py/builtinhelp.o
 .data          0x0000000000000000        0x0 build/py/builtinhelp.o
 .bss           0x0000000000000000        0x0 build/py/builtinhelp.o
 .debug_info    0x0000000000000000       0x87 build/py/builtinhelp.o
 .debug_abbrev  0x0000000000000000       0x26 build/py/builtinhelp.o
 .debug_aranges
                0x0000000000000000       0x20 build/py/builtinhelp.o
 .debug_line    0x0000000000000000       0x1d build/py/builtinhelp.o
 .debug_str     0x0000000000000000      0x163 build/py/builtinhelp.o
 .comment       0x0000000000000000       0x5e build/py/builtinhelp.o
 .note.GNU-stack
                0x0000000000000000        0x0 build/py/builtinhelp.o
 .text          0x0000000000000000        0x0 build/py/modarray.o
 .data          0x0000000000000000        0x0 build/py/modarray.o
 .bss           0x0000000000000000        0x0 build/py/modarray.o
 .debug_info    0x0000000000000000       0x87 build/py/modarray.o
 .debug_abbrev  0x0000000000000000       0x26 build/py/modarray.o
 .debug_aranges
                0x0000000000000000       0x20 build/py/modarray.o
 .debug_line    0x0000000000000000       0x1d build/py/modarray.o
 .debug_str     0x0000000000000000      0x160 build/py/modarray.o
 .comment       0x0000000000000000       0x5e build/py/modarray.o
 .note.GNU-stack
                0x0000000000000000        0x0 build/py/modarray.o
 .text          0x0000000000000000        0x0 build/py/modbuiltins.o
 .data          0x0000000000000000        0x0 build/py/modbuiltins.o
 .bss           0x0000000000000000        0x0 build/py/modbuiltins.o
 .eh_frame      0x0000000000000000      0x398 build/py/modbuiltins.o
 .text          0x0000000000000000        0x0 build/py/modcollections.o
 .data          0x0000000000000000        0x0 build/py/modcollections.o
 .bss           0x0000000000000000        0x0 build/py/modcollections.o
 .debug_info    0x0000000000000000       0x87 build/py/modcollections.o
 .debug_abbrev  0x0000000000000000       0x26 build/py/modcollections.o
 .debug_aranges
                0x0000000000000000       0x20 build/py/modcollections.o
 .debug_line    0x0000000000000000       0x1d build/py/modcollections.o
 .debug_str     0x0000000000000000      0x166 build/py/modcollections.o
 .comment       0x0000000000000000       0x5e build/py/modcollections.o
 .note.GNU-stack
                0x0000000000000000        0x0 build/py/modcollections.o
 .text          0x0000000000000000        0x0 build/py/modgc.o
 .data          0x0000000000000000        0x0 build/py/modgc.o
 .bss           0x0000000000000000        0x0 build/py/modgc.o
 .debug_info    0x0000000000000000       0x87 build/py/modgc.o
 .debug_abbrev  0x0000000000000000       0x26 build/py/modgc.o
 .debug_aranges
                0x0000000000000000       0x20 build/py/modgc.o
 .debug_line    0x0000000000000000       0x1d build/py/modgc.o
 .debug_str     0x0000000000000000      0x15d build/py/modgc.o
 .comment       0x0000000000000000       0x5e build/py/modgc.o
 .note.GNU-stack
                0x0000000000000000        0x0 build/py/modgc.o
 .text          0x0000000000000000        0x0 build/py/modio.o
 .data          0x0000000000000000        0x0 build/py/modio.o
 .bss           0x0000000000000000        0x0 build/py/modio.o
 .debug_info    0x0000000000000000       0x87 build/py/modio.o
 .debug_abbrev  0x0000000000000000       0x26 build/py/modio.o
 .debug_aranges
                0x0000000000000000       0x20 build/py/modio.o
 .debug_line    0x0000000000000000       0x1d build/py/modio.o
 .debug_str     0x0000000000000000      0x15d build/py/modio.o
 .comment       0x0000000000000000       0x5e build/py/modio.o
 .note.GNU-stack
                0x0000000000000000        0x0 build/py/modio.o
 .text          0x0000000000000000        0x0 build/py/modmath.o
 .data          0x0000000000000000        0x0 build/py/modmath.o
 .bss           0x0000000000000000        0x0 build/py/modmath.o
 .debug_info    0x0000000000000000       0x87 build/py/modmath.o
 .debug_abbrev  0x0000000000000000       0x26 build/py/modmath.o
 .debug_aranges
                0x0000000000000000       0x20 build/py/modmath.o
 .debug_line    0x0000000000000000       0x1d build/py/modmath.o
 .debug_str     0x0000000000000000      0x15f build/py/modmath.o
 .comment       0x0000000000000000       0x5e build/py/modmath.o
 .note.GNU-stack
                0x0000000000000000        0x0 build/py/modmath.o
 .text          0x0000000000000000        0x0 build/py/modcmath.o
 .data          0x0000000000000000        0x0 build/py/modcmath.o
 .bss           0x0000000000000000        0x0 build/py/modcmath.o
 .debug_info    0x0000000000000000       0x87 build/py/modcmath.o
 .debug_abbrev  0x0000000000000000       0x26 build/py/modcmath.o
 .debug_aranges
                0x0000000000000000       0x20 build/py/modcmath.o
 .debug_line    0x0000000000000000       0x1d build/py/modcmath.o
 .debug_str     0x0000000000000000      0x160 build/py/modcmath.o
 .comment       0x0000000000000000       0x5e build/py/modcmath.o
 .note.GNU-stack
                0x0000000000000000        0x0 build/py/modcmath.o
 .text          0x0000000000000000        0x0 build/py/modmicropython.o
 .data          0x0000000000000000        0x0 build/py/modmicropython.o
 .bss           0x0000000000000000        0x0 build/py/modmicropython.o
 .debug_info    0x0000000000000000       0x87 build/py/modmicropython.o
 .debug_abbrev  0x0000000000000000       0x26 build/py/modmicropython.o
 .debug_aranges
                0x0000000000000000       0x20 build/py/modmicropython.o
 .debug_line    0x0000000000000000       0x1d build/py/modmicropython.o
 .debug_str     0x0000000000000000      0x166 build/py/modmicropython.o
 .comment       0x0000000000000000       0x5e build/py/modmicropython.o
 .note.GNU-stack
                0x0000000000000000        0x0 build/py/modmicropython.o
 .text          0x0000000000000000        0x0 build/py/modstruct.o
 .data          0x0000000000000000        0x0 build/py/modstruct.o
 .bss           0x0000000000000000        0x0 build/py/modstruct.o
 .debug_info    0x0000000000000000       0x87 build/py/modstruct.o
 .debug_abbrev  0x0000000000000000       0x26 build/py/modstruct.o
 .debug_aranges
                0x0000000000000000       0x20 build/py/modstruct.o
 .debug_line    0x0000000000000000       0x1d build/py/modstruct.o
 .debug_str     0x0000000000000000      0x161 build/py/modstruct.o
 .comment       0x0000000000000000       0x5e build/py/modstruct.o
 .note.GNU-stack
                0x0000000000000000        0x0 build/py/modstruct.o
 .text          0x0000000000000000        0x0 build/py/modsys.o
 .data          0x0000000000000000        0x0 build/py/modsys.o
 .bss           0x0000000000000000        0x0 build/py/modsys.o
 .debug_info    0x0000000000000000       0x87 build/py/modsys.o
 .debug_abbrev  0x0000000000000000       0x26 build/py/modsys.o
 .debug_aranges
                0x0000000000000000       0x20 build/py/modsys.o
 .debug_line    0x0000000000000000       0x1d build/py/modsys.o
 .debug_str     0x0000000000000000      0x15e build/py/modsys.o
 .comment       0x0000000000000000       0x5e build/py/modsys.o
 .note.GNU-stack
                0x0000000000000000        0x0 build/py/modsys.o
 .text          0x0000000000000000        0x0 build/py/moderrno.o
 .data          0x0000000000000000        0x0 build/py/moderrno.o
 .bss           0x0000000000000000        0x0 build/py/moderrno.o
 .debug_info    0x0000000000000000       0x87 build/py/moderrno.o
 .debug_abbrev  0x0000000000000000       0x26 build/py/moderrno.o
 .debug_aranges
                0x0000000000000000       0x20 build/py/moderrno.o
 .debug_line    0x0000000000000000       0x1d build/py/moderrno.o
 .debug_str     0x0000000000000000      0x160 build/py/moderrno.o
 .comment       0x0000000000000000       0x5e build/py/moderrno.o
 .note.GNU-stack
                0x0000000000000000        0x0 build/py/moderrno.o
 .text          0x0000000000000000        0x0 build/py/modthread.o
 .data          0x0000000000000000        0x0 build/py/modthread.o
 .bss           0x0000000000000000        0x0 build/py/modthread.o
 .debug_info    0x0000000000000000       0x87 build/py/modthread.o
 .debug_abbrev  0x0000000000000000       0x26 build/py/modthread.o
 .debug_aranges
                0x0000000000000000       0x20 build/py/modthread.o
 .debug_line    0x0000000000000000       0x1d build/py/modthread.o
 .debug_str     0x0000000000000000      0x161 build/py/modthread.o
 .comment       0x0000000000000000       0x5e build/py/modthread.o
 .note.GNU-stack
                0x0000000000000000        0x0 build/py/modthread.o
 .text          0x0000000000000000        0x0 build/py/vm.o
 .data          0x0000000000000000        0x0 build/py/vm.o
 .bss           0x0000000000000000        0x0 build/py/vm.o
 .eh_frame      0x0000000000000000       0x60 build/py/vm.o
 .text          0x0000000000000000        0x0 build/py/bc.o
 .data          0x0000000000000000        0x0 build/py/bc.o
 .bss           0x0000000000000000        0x0 build/py/bc.o
 .eh_frame      0x0000000000000000       0xd0 build/py/bc.o
 .text          0x0000000000000000        0x0 build/py/showbc.o
 .data          0x0000000000000000        0x0 build/py/showbc.o
 .bss           0x0000000000000000        0x0 build/py/showbc.o
 .debug_info    0x0000000000000000       0x87 build/py/showbc.o
 .debug_abbrev  0x0000000000000000       0x26 build/py/showbc.o
 .debug_aranges
                0x0000000000000000       0x20 build/py/showbc.o
 .debug_line    0x0000000000000000       0x1d build/py/showbc.o
 .debug_str     0x0000000000000000      0x15e build/py/showbc.o
 .comment       0x0000000000000000       0x5e build/py/showbc.o
 .note.GNU-stack
                0x0000000000000000        0x0 build/py/showbc.o
 .text          0x0000000000000000        0x0 build/py/repl.o
 .data          0x0000000000000000        0x0 build/py/repl.o
 .bss           0x0000000000000000        0x0 build/py/repl.o
 .eh_frame      0x0000000000000000       0xc8 build/py/repl.o
 .text          0x0000000000000000        0x0 build/py/smallint.o
 .data          0x0000000000000000        0x0 build/py/smallint.o
 .bss           0x0000000000000000        0x0 build/py/smallint.o
 .eh_frame      0x0000000000000000       0x50 build/py/smallint.o
 .text          0x0000000000000000        0x0 build/py/frozenmod.o
 .data          0x0000000000000000        0x0 build/py/frozenmod.o
 .bss           0x0000000000000000        0x0 build/py/frozenmod.o
 .eh_frame      0x0000000000000000       0x50 build/py/frozenmod.o
 .text          0x0000000000000000        0x0 build/main.o
 .data          0x0000000000000000        0x0 build/main.o
 .bss           0x0000000000000000        0x0 build/main.o
 .text.do_str   0x0000000000000000       0x84 build/main.o
 .text.__fatal_error
                0x0000000000000000        0x4 build/main.o
 .eh_frame      0x0000000000000000       0xd0 build/main.o
 .text          0x0000000000000000        0x0 build/uart_core.o
 .data          0x0000000000000000        0x0 build/uart_core.o
 .bss           0x0000000000000000        0x0 build/uart_core.o
 .eh_frame      0x0000000000000000       0x48 build/uart_core.o
 .text          0x0000000000000000        0x0 build/shared/libc/printf.o
 .data          0x0000000000000000        0x0 build/shared/libc/printf.o
 .bss           0x0000000000000000        0x0 build/shared/libc/printf.o
 .text.vprintf  0x0000000000000000       0x34 build/shared/libc/printf.o
 .text.putchar  0x0000000000000000       0x34 build/shared/libc/printf.o
 .text.puts     0x0000000000000000       0x40 build/shared/libc/printf.o
 .eh_frame      0x0000000000000000      0x100 build/shared/libc/printf.o
 .text          0x0000000000000000        0x0 build/shared/readline/readline.o
 .data          0x0000000000000000        0x0 build/shared/readline/readline.o
 .bss           0x0000000000000000        0x0 build/shared/readline/readline.o
 .text.readline_init0
                0x0000000000000000       0x1c build/shared/readline/readline.o
 .text.readline_note_newline
                0x0000000000000000       0x20 build/shared/readline/readline.o
 .eh_frame      0x0000000000000000       0xf8 build/shared/readline/readline.o
 .text          0x0000000000000000        0x0 build/shared/runtime/pyexec.o
 .data          0x0000000000000000        0x0 build/shared/runtime/pyexec.o
 .bss           0x0000000000000000        0x0 build/shared/runtime/pyexec.o
 .text.mp_reader_stdin_close
                0x0000000000000000       0x44 build/shared/runtime/pyexec.o
 .rodata.mp_reader_stdin_readbyte.str1.1
                0x0000000000000000        0x2 build/shared/runtime/pyexec.o
 .text.mp_reader_stdin_readbyte
                0x0000000000000000       0xa0 build/shared/runtime/pyexec.o
 .text.pyexec_raw_repl
                0x0000000000000000      0x1b4 build/shared/runtime/pyexec.o
 .text.pyexec_file
                0x0000000000000000        0xc build/shared/runtime/pyexec.o
 .rodata.pyexec_frozen_module.str1.1
                0x0000000000000000       0x1c build/shared/runtime/pyexec.o
 .text.pyexec_frozen_module
                0x0000000000000000       0x74 build/shared/runtime/pyexec.o
 .text.pyexec_file_if_exists
                0x0000000000000000       0x68 build/shared/runtime/pyexec.o
 .rodata        0x0000000000000000        0x3 build/shared/runtime/pyexec.o
 .eh_frame      0x0000000000000000      0x170 build/shared/runtime/pyexec.o
 .text          0x0000000000000000        0x0 build/shared/runtime/stdout_helpers.o
 .data          0x0000000000000000        0x0 build/shared/runtime/stdout_helpers.o
 .bss           0x0000000000000000        0x0 build/shared/runtime/stdout_helpers.o
 .eh_frame      0x0000000000000000       0x70 build/shared/runtime/stdout_helpers.o
 .text          0x0000000000000000        0x0 build/build/_frozen_mpy.o
 .data          0x0000000000000000        0x0 build/build/_frozen_mpy.o
 .bss           0x0000000000000000        0x0 build/build/_frozen_mpy.o
 .text          0x0000000000000000        0x0 ../../../../build/lib/libc/libc.a(crt0.S.obj)
 .bss           0x0000000000000000        0x0 ../../../../build/lib/libc/libc.a(crt0.S.obj)
 .data          0x0000000000000000        0x0 ../../../../build/lib/libc/libc.a(crt1.c.obj)
 .bss           0x0000000000000000        0x0 ../../../../build/lib/libc/libc.a(crt1.c.obj)
 .eh_frame      0x0000000000000000       0x70 ../../../../build/lib/libc/libc.a(crt1.c.obj)
 .data          0x0000000000000000        0x0 ../../../../build/lib/libc/libc.a(strcmp.c.obj)
 .bss           0x0000000000000000        0x0 ../../../../build/lib/libc/libc.a(strcmp.c.obj)
 .eh_frame      0x0000000000000000       0x30 ../../../../build/lib/libc/libc.a(strcmp.c.obj)
 .data          0x0000000000000000        0x0 ../../../../build/lib/libc/libc.a(strncmp.c.obj)
 .bss           0x0000000000000000        0x0 ../../../../build/lib/libc/libc.a(strncmp.c.obj)
 .eh_frame      0x0000000000000000       0x30 ../../../../build/lib/libc/libc.a(strncmp.c.obj)
 .data          0x0000000000000000        0x0 ../../../../build/lib/libc/libc.a(strlen.c.obj)
 .bss           0x0000000000000000        0x0 ../../../../build/lib/libc/libc.a(strlen.c.obj)
 .eh_frame      0x0000000000000000       0x30 ../../../../build/lib/libc/libc.a(strlen.c.obj)
 .data          0x0000000000000000        0x0 ../../../../build/lib/libc/libc.a(memcpy.c.obj)
 .bss           0x0000000000000000        0x0 ../../../../build/lib/libc/libc.a(memcpy.c.obj)
 .eh_frame      0x0000000000000000       0x30 ../../../../build/lib/libc/libc.a(memcpy.c.obj)
 .data          0x0000000000000000        0x0 ../../../../build/lib/libc/libc.a(memset.c.obj)
 .bss           0x0000000000000000        0x0 ../../../../build/lib/libc/libc.a(memset.c.obj)
 .eh_frame      0x0000000000000000       0x30 ../../../../build/lib/libc/libc.a(memset.c.obj)
 .data          0x0000000000000000        0x0 ../../../../build/lib/libc/libc.a(memcmp.c.obj)
 .bss           0x0000000000000000        0x0 ../../../../build/lib/libc/libc.a(memcmp.c.obj)
 .eh_frame      0x0000000000000000       0x30 ../../../../build/lib/libc/libc.a(memcmp.c.obj)
 .data          0x0000000000000000        0x0 ../../../../build/lib/libc/libc.a(memmove.c.obj)
 .bss           0x0000000000000000        0x0 ../../../../build/lib/libc/libc.a(memmove.c.obj)
 .eh_frame      0x0000000000000000       0x38 ../../../../build/lib/libc/libc.a(memmove.c.obj)
 .data          0x0000000000000000        0x0 ../../../../build/lib/libc/libc.a(strchr.c.obj)
 .bss           0x0000000000000000        0x0 ../../../../build/lib/libc/libc.a(strchr.c.obj)
 .eh_frame      0x0000000000000000       0x38 ../../../../build/lib/libc/libc.a(strchr.c.obj)
 .data          0x0000000000000000        0x0 ../../../../build/lib/libc/libc.a(write.c.obj)
 .bss           0x0000000000000000        0x0 ../../../../build/lib/libc/libc.a(write.c.obj)
 .eh_frame      0x0000000000000000       0x38 ../../../../build/lib/libc/libc.a(write.c.obj)
 .data          0x0000000000000000        0x0 ../../../../build/lib/libc/libc.a(read.c.obj)
 .bss           0x0000000000000000        0x0 ../../../../build/lib/libc/libc.a(read.c.obj)
 .eh_frame      0x0000000000000000       0x38 ../../../../build/lib/libc/libc.a(read.c.obj)
 .data          0x0000000000000000        0x0 ../../../../build/lib/libc/libc.a(getpid.c.obj)
 .bss           0x0000000000000000        0x0 ../../../../build/lib/libc/libc.a(getpid.c.obj)
 .eh_frame      0x0000000000000000       0x38 ../../../../build/lib/libc/libc.a(getpid.c.obj)
 .text          0x0000000000000000        0x0 ../../../../build/lib/libc/libc.a(__environ.c.obj)
 .data          0x0000000000000000        0x0 ../../../../build/lib/libc/libc.a(__environ.c.obj)
 .data          0x0000000000000000        0x0 ../../../../build/lib/libc/libc.a(exit.c.obj)
 .bss           0x0000000000000000        0x0 ../../../../build/lib/libc/libc.a(exit.c.obj)
 .eh_frame      0x0000000000000000       0x60 ../../../../build/lib/libc/libc.a(exit.c.obj)
 .data          0x0000000000000000        0x0 ../../../../build/lib/libc/libc.a(_Exit.c.obj)
 .bss           0x0000000000000000        0x0 ../../../../build/lib/libc/libc.a(_Exit.c.obj)
 .eh_frame      0x0000000000000000       0x30 ../../../../build/lib/libc/libc.a(_Exit.c.obj)
 .data          0x0000000000000000        0x0 ../../../../build/lib/libc/libc.a(waitpid.c.obj)
 .bss           0x0000000000000000        0x0 ../../../../build/lib/libc/libc.a(waitpid.c.obj)
 .eh_frame      0x0000000000000000       0x38 ../../../../build/lib/libc/libc.a(waitpid.c.obj)
 .data          0x0000000000000000        0x0 ../../../../build/lib/libc/libc.a(sigaction.c.obj)
 .eh_frame      0x0000000000000000      0x168 ../../../../build/lib/libc/libc.a(sigaction.c.obj)
 .data          0x0000000000000000        0x0 ../../../../build/lib/libc/libc.a(strchrnul.c.obj)
 .bss           0x0000000000000000        0x0 ../../../../build/lib/libc/libc.a(strchrnul.c.obj)
 .eh_frame      0x0000000000000000       0x38 ../../../../build/lib/libc/libc.a(strchrnul.c.obj)

Memory Configuration

Name             Origin             Length             Attributes
*default*        0x0000000000000000 0xffffffffffffffff

Linker script and memory map


.text           0x0000000000001000    0x18620
 *(.head)
 .head          0x0000000000001000      0xa70 ../../../../build/lib/libc/libc.a(crt0.S.obj)
                0x0000000000001000                __start
                0x000000000000100c                sys_halt
                0x0000000000001040                sys_write
                0x0000000000001074                sys_read
                0x00000000000010a8                sys_exit
                0x00000000000010dc                sys_execve
                0x0000000000001110                sys_waitpid
                0x0000000000001144                sys_pause
                0x0000000000001178                sys_fork
                0x00000000000011ac                sys_readdir
                0x00000000000011e0                sys_chdir
                0x0000000000001214                sys_getcwd
                0x0000000000001248                sys_creat
                0x000000000000127c                sys_unlink
                0x00000000000012b0                sys_open
                0x00000000000012e4                sys_close
                0x0000000000001318                sys_thread_create
                0x000000000000134c                sys_thread_join
                0x0000000000001380                sys_thread_exit
                0x00000000000013b4                sys_thread_yield
                0x00000000000013e8                sys_pipe
                0x000000000000141c                sys_ioctl
                0x0000000000001450                sys_fcntl
                0x0000000000001484                sys_stat
                0x00000000000014b8                sys_dup
                0x00000000000014ec                sys_dup2
                0x0000000000001520                sys_sched_setparam
                0x0000000000001554                sys_socket
                0x0000000000001588                sys_bind
                0x00000000000015bc                sys_listen
                0x00000000000015f0                sys_accept
                0x0000000000001624                sys_connect
                0x0000000000001658                sys_mmap
                0x000000000000168c                sys_ptrace
                0x00000000000016c0                sys_send
                0x00000000000016f4                sys_recv
                0x0000000000001728                sys_recvfrom
                0x000000000000175c                sys_setsockopt
                0x0000000000001790                sys_sendto
                0x00000000000017c4                sys_getpid
                0x00000000000017f8                sys_gettimeofday
                0x000000000000182c                sys_settimeofday
                0x0000000000001860                sys_clock_gettime
                0x0000000000001894                sys_sbrk
                0x00000000000018c8                sys_info
                0x00000000000018fc                sys_lseek
                0x0000000000001930                sys_mutex_lock
                0x0000000000001964                sys_mutex_unlock
                0x0000000000001998                sys_sigaction
                0x00000000000019cc                sys_kill
                0x0000000000001a00                sys_sigreturn
                0x0000000000001a34                sys_nanosleep
 .head          0x0000000000001a70      0x108 ../../../../build/lib/libc/libc.a(crt1.c.obj)
                0x0000000000001a70                __entryC
 *(.text*)
 .text.nlr_push_tail
                0x0000000000001b78       0x1c build/py/nlr.o
                0x0000000000001b78                nlr_push_tail
 .text.nlr_pop  0x0000000000001b94       0x18 build/py/nlr.o
                0x0000000000001b94                nlr_pop
 .text.nlr_push_jump_callback
                0x0000000000001bac       0x18 build/py/nlr.o
                0x0000000000001bac                nlr_push_jump_callback
 .text.nlr_pop_jump_callback
                0x0000000000001bc4       0x30 build/py/nlr.o
                0x0000000000001bc4                nlr_pop_jump_callback
 .text.nlr_call_jump_callbacks
                0x0000000000001bf4       0x40 build/py/nlr.o
                0x0000000000001bf4                nlr_call_jump_callbacks
 .text          0x0000000000001c34       0x24 build/py/nlraarch64.o
                0x0000000000001c34                nlr_push
 .text.nlr_jump
                0x0000000000001c58       0x64 build/py/nlraarch64.o
                0x0000000000001c58                nlr_jump
 .text.m_malloc
                0x0000000000001cbc       0x38 build/py/malloc.o
                0x0000000000001cbc                m_malloc
 .text.m_malloc_maybe
                0x0000000000001cf4        0x8 build/py/malloc.o
                0x0000000000001cf4                m_malloc_maybe
 .text.m_malloc0
                0x0000000000001cfc        0x4 build/py/malloc.o
                0x0000000000001cfc                m_malloc0
 .text.m_realloc
                0x0000000000001d00       0x38 build/py/malloc.o
                0x0000000000001d00                m_realloc
 .text.m_realloc_maybe
                0x0000000000001d38        0x4 build/py/malloc.o
                0x0000000000001d38                m_realloc_maybe
 .text.m_free   0x0000000000001d3c        0x4 build/py/malloc.o
                0x0000000000001d3c                m_free
 .text.gc_mark_subtree
                0x0000000000001d40       0xe8 build/py/gc.o
 .text.gc_init  0x0000000000001e28       0x60 build/py/gc.o
                0x0000000000001e28                gc_init
 .text.gc_is_locked
                0x0000000000001e88       0x14 build/py/gc.o
                0x0000000000001e88                gc_is_locked
 .text.gc_collect_root
                0x0000000000001e9c       0xd0 build/py/gc.o
                0x0000000000001e9c                gc_collect_root
 .text.gc_collect_start
                0x0000000000001f6c       0x28 build/py/gc.o
                0x0000000000001f6c                gc_collect_start
 .text.gc_collect_end
                0x0000000000001f94      0x1d0 build/py/gc.o
                0x0000000000001f94                gc_collect_end
 .text.gc_info  0x0000000000002164      0x148 build/py/gc.o
                0x0000000000002164                gc_info
 .text.gc_alloc
                0x00000000000022ac      0x18c build/py/gc.o
                0x00000000000022ac                gc_alloc
 .text.gc_free  0x0000000000002438       0x7c build/py/gc.o
                0x0000000000002438                gc_free
 .text.gc_realloc
                0x00000000000024b4      0x1b8 build/py/gc.o
                0x00000000000024b4                gc_realloc
 .text.gc_dump_info
                0x000000000000266c       0x60 build/py/gc.o
                0x000000000000266c                gc_dump_info
 .text.find_qstr
                0x00000000000026cc       0x30 build/py/qstr.o
 .text.qstr_compute_hash
                0x00000000000026fc       0x2c build/py/qstr.o
                0x00000000000026fc                qstr_compute_hash
 .text.qstr_init
                0x0000000000002728       0x1c build/py/qstr.o
                0x0000000000002728                qstr_init
 .text.qstr_find_strn
                0x0000000000002744       0xb4 build/py/qstr.o
                0x0000000000002744                qstr_find_strn
 .text.qstr_from_strn
                0x00000000000027f8      0x1cc build/py/qstr.o
                0x00000000000027f8                qstr_from_strn
 .text.qstr_hash
                0x00000000000029c4       0x28 build/py/qstr.o
                0x00000000000029c4                qstr_hash
 .text.qstr_len
                0x00000000000029ec       0x28 build/py/qstr.o
                0x00000000000029ec                qstr_len
 .text.qstr_str
                0x0000000000002a14       0x28 build/py/qstr.o
                0x0000000000002a14                qstr_str
 .text.qstr_data
                0x0000000000002a3c       0x38 build/py/qstr.o
                0x0000000000002a3c                qstr_data
 .text.mp_decompress_rom_string
                0x0000000000002a74       0xb4 build/py/qstr.o
                0x0000000000002a74                mp_decompress_rom_string
 .text.vstr_ensure_extra
                0x0000000000002b28       0x68 build/py/vstr.o
 .text.vstr_add_strn
                0x0000000000002b90       0x54 build/py/vstr.o
                0x0000000000002b90                vstr_add_strn
 .text.vstr_ins_blank_bytes.constprop.0
                0x0000000000002be4       0x64 build/py/vstr.o
 .text.vstr_init
                0x0000000000002c48       0x34 build/py/vstr.o
                0x0000000000002c48                vstr_init
 .text.vstr_init_len
                0x0000000000002c7c       0x2c build/py/vstr.o
                0x0000000000002c7c                vstr_init_len
 .text.vstr_init_fixed_buf
                0x0000000000002ca8       0x14 build/py/vstr.o
                0x0000000000002ca8                vstr_init_fixed_buf
 .text.vstr_init_print
                0x0000000000002cbc       0x30 build/py/vstr.o
                0x0000000000002cbc                vstr_init_print
 .text.vstr_clear
                0x0000000000002cec       0x30 build/py/vstr.o
                0x0000000000002cec                vstr_clear
 .text.vstr_extend
                0x0000000000002d1c       0x5c build/py/vstr.o
                0x0000000000002d1c                vstr_extend
 .text.vstr_add_len
                0x0000000000002d78       0x34 build/py/vstr.o
                0x0000000000002d78                vstr_add_len
 .text.vstr_null_terminated_str
                0x0000000000002dac       0x3c build/py/vstr.o
                0x0000000000002dac                vstr_null_terminated_str
 .text.vstr_add_byte
                0x0000000000002de8       0x28 build/py/vstr.o
                0x0000000000002de8                vstr_add_byte
 .text.vstr_add_char
                0x0000000000002e10        0x4 build/py/vstr.o
                0x0000000000002e10                vstr_add_char
 .text.vstr_add_str
                0x0000000000002e14       0x34 build/py/vstr.o
                0x0000000000002e14                vstr_add_str
 .text.vstr_ins_byte
                0x0000000000002e48       0x24 build/py/vstr.o
                0x0000000000002e48                vstr_ins_byte
 .text.vstr_ins_char
                0x0000000000002e6c       0x24 build/py/vstr.o
                0x0000000000002e6c                vstr_ins_char
 .text.vstr_cut_tail_bytes
                0x0000000000002e90       0x14 build/py/vstr.o
                0x0000000000002e90                vstr_cut_tail_bytes
 .text.vstr_cut_out_bytes
                0x0000000000002ea4       0x64 build/py/vstr.o
                0x0000000000002ea4                vstr_cut_out_bytes
 .text.plat_print_strn
                0x0000000000002f08        0xc build/py/mpprint.o
 .text.mp_print_str
                0x0000000000002f14       0x4c build/py/mpprint.o
                0x0000000000002f14                mp_print_str
 .text.mp_print_strn
                0x0000000000002f60      0x134 build/py/mpprint.o
                0x0000000000002f60                mp_print_strn
 .text.mp_print_int
                0x0000000000003094      0x13c build/py/mpprint.o
 .text.mp_print_mp_int
                0x00000000000031d0      0x350 build/py/mpprint.o
                0x00000000000031d0                mp_print_mp_int
 .text.mp_vprintf
                0x0000000000003520      0x58c build/py/mpprint.o
                0x0000000000003520                mp_vprintf
 .text.mp_printf
                0x0000000000003aac       0x74 build/py/mpprint.o
                0x0000000000003aac                mp_printf
 .text.unichar_isspace
                0x0000000000003b20       0x24 build/py/unicode.o
                0x0000000000003b20                unichar_isspace
 .text.unichar_isalpha
                0x0000000000003b44       0x24 build/py/unicode.o
                0x0000000000003b44                unichar_isalpha
 .text.unichar_isdigit
                0x0000000000003b68       0x24 build/py/unicode.o
                0x0000000000003b68                unichar_isdigit
 .text.unichar_isxdigit
                0x0000000000003b8c       0x24 build/py/unicode.o
                0x0000000000003b8c                unichar_isxdigit
 .text.unichar_isident
                0x0000000000003bb0       0x38 build/py/unicode.o
                0x0000000000003bb0                unichar_isident
 .text.unichar_isupper
                0x0000000000003be8       0x24 build/py/unicode.o
                0x0000000000003be8                unichar_isupper
 .text.unichar_islower
                0x0000000000003c0c       0x24 build/py/unicode.o
                0x0000000000003c0c                unichar_islower
 .text.unichar_tolower
                0x0000000000003c30       0x28 build/py/unicode.o
                0x0000000000003c30                unichar_tolower
 .text.unichar_toupper
                0x0000000000003c58       0x28 build/py/unicode.o
                0x0000000000003c58                unichar_toupper
 .text.unichar_xdigit_value
                0x0000000000003c80       0x18 build/py/unicode.o
                0x0000000000003c80                unichar_xdigit_value
 .text.mp_reader_mem_readbyte
                0x0000000000003c98       0x24 build/py/reader.o
 .text.mp_reader_mem_close
                0x0000000000003cbc       0x30 build/py/reader.o
 .text.mp_reader_new_mem
                0x0000000000003cec       0x64 build/py/reader.o
                0x0000000000003cec                mp_reader_new_mem
 .text.next_char
                0x0000000000003d50       0xc8 build/py/lexer.o
 .text.skip_whitespace
                0x0000000000003e18       0xc4 build/py/lexer.o
 .text.is_string_or_bytes
                0x0000000000003edc       0x88 build/py/lexer.o
 .text.mp_lexer_to_next
                0x0000000000003f64      0x844 build/py/lexer.o
                0x0000000000003f64                mp_lexer_to_next
 .text.mp_lexer_new
                0x00000000000047a8       0xc8 build/py/lexer.o
                0x00000000000047a8                mp_lexer_new
 .text.mp_lexer_new_from_str_len
                0x0000000000004870       0x40 build/py/lexer.o
                0x0000000000004870                mp_lexer_new_from_str_len
 .text.mp_lexer_free
                0x00000000000048b0       0x44 build/py/lexer.o
                0x00000000000048b0                mp_lexer_free
 .text.pop_result
                0x00000000000048f4       0x14 build/py/parse.o
 .text.parser_alloc
                0x0000000000004908       0xc4 build/py/parse.o
 .text.push_result_node
                0x00000000000049cc       0x60 build/py/parse.o
 .text.push_rule
                0x0000000000004a2c       0x88 build/py/parse.o
 .text.push_rule_from_arg
                0x0000000000004ab4       0x14 build/py/parse.o
 .text.push_result_token.constprop.0
                0x0000000000004ac8      0x118 build/py/parse.o
 .text.push_result_rule
                0x0000000000004be0      0x120 build/py/parse.o
 .text.mp_parse_node_is_const_false
                0x0000000000004d00       0x28 build/py/parse.o
                0x0000000000004d00                mp_parse_node_is_const_false
 .text.mp_parse_node_is_const_true
                0x0000000000004d28       0x28 build/py/parse.o
                0x0000000000004d28                mp_parse_node_is_const_true
 .text.mp_parse_node_extract_list
                0x0000000000004d50       0x44 build/py/parse.o
                0x0000000000004d50                mp_parse_node_extract_list
 .text.mp_parse
                0x0000000000004d94      0x514 build/py/parse.o
                0x0000000000004d94                mp_parse
 .text.mp_parse_tree_clear
                0x00000000000052a8       0x34 build/py/parse.o
                0x00000000000052a8                mp_parse_tree_clear
 .text.scope_new
                0x00000000000052dc       0x8c build/py/scope.o
                0x00000000000052dc                scope_new
 .text.scope_free
                0x0000000000005368       0x28 build/py/scope.o
                0x0000000000005368                scope_free
 .text.scope_find
                0x0000000000005390       0x38 build/py/scope.o
                0x0000000000005390                scope_find
 .text.scope_find_or_add_id
                0x00000000000053c8       0x8c build/py/scope.o
                0x00000000000053c8                scope_find_or_add_id
 .text.scope_find_global
                0x0000000000005454       0x14 build/py/scope.o
                0x0000000000005454                scope_find_global
 .text.scope_check_to_close_over
                0x0000000000005468       0xa0 build/py/scope.o
                0x0000000000005468                scope_check_to_close_over
 .text.apply_to_single_or_list
                0x0000000000005508       0x94 build/py/compile.o
 .text.compile_del_stmt
                0x000000000000559c       0x14 build/py/compile.o
 .text.compile_import_name
                0x00000000000055b0       0x14 build/py/compile.o
 .text.scope_new_and_link
                0x00000000000055c4       0x54 build/py/compile.o
 .text.compile_trailer_period
                0x0000000000005618       0x14 build/py/compile.o
 .text.compile_const_object
                0x000000000000562c        0xc build/py/compile.o
 .text.close_over_variables_etc
                0x0000000000005638      0x134 build/py/compile.o
 .text.compile_funcdef_lambdef
                0x000000000000576c       0xa0 build/py/compile.o
 .text.compile_lambdef
                0x000000000000580c       0x54 build/py/compile.o
 .text.compile_funcdef_helper
                0x0000000000005860       0x64 build/py/compile.o
 .text.compile_increase_except_level
                0x00000000000058c4       0x4c build/py/compile.o
 .text.compile_decrease_except_level
                0x0000000000005910       0x14 build/py/compile.o
 .text.do_import_name
                0x0000000000005924      0x194 build/py/compile.o
 .text.compile_error_set_line
                0x0000000000005ab8       0x20 build/py/compile.o
 .text.compile_syntax_error
                0x0000000000005ad8       0x50 build/py/compile.o
 .text.compile_star_expr
                0x0000000000005b28        0xc build/py/compile.o
 .text.compile_break_cont_stmt
                0x0000000000005b34       0x60 build/py/compile.o
 .text.compile_load_id
                0x0000000000005b94       0x30 build/py/compile.o
 .text.compile_store_id
                0x0000000000005bc4       0x30 build/py/compile.o
 .text.compile_funcdef
                0x0000000000005bf4       0x30 build/py/compile.o
 .text.compile_import_from
                0x0000000000005c24      0x1c8 build/py/compile.o
 .text.compile_dotted_as_name
                0x0000000000005dec       0x54 build/py/compile.o
 .text.compile_delete_id
                0x0000000000005e40       0x30 build/py/compile.o
 .text.compile_node
                0x0000000000005e70       0xc8 build/py/compile.o
 .text.c_assign
                0x0000000000005f38      0x28c build/py/compile.o
 .text.c_assign_tuple
                0x00000000000061c4       0xf0 build/py/compile.o
 .text.c_if_cond
                0x00000000000062b4      0x19c build/py/compile.o
 .text.compile_scope_comp_iter
                0x0000000000006450      0x140 build/py/compile.o
 .text.compile_scope
                0x0000000000006590      0x2d4 build/py/compile.o
 .text.compile_yield_expr
                0x0000000000006864       0xa0 build/py/compile.o
 .text.compile_dictorsetmaker_item
                0x0000000000006904       0x30 build/py/compile.o
 .text.compile_trailer_bracket
                0x0000000000006934       0x2c build/py/compile.o
 .text.compile_while_stmt
                0x0000000000006960       0xec build/py/compile.o
 .text.compile_yield_stmt
                0x0000000000006a4c       0x28 build/py/compile.o
 .text.compile_return_stmt
                0x0000000000006a74       0x3c build/py/compile.o
 .text.c_del_stmt
                0x0000000000006ab0      0x1b4 build/py/compile.o
 .text.compile_generic_tuple
                0x0000000000006c64       0x5c build/py/compile.o
 .text.compile_generic_all_nodes
                0x0000000000006cc0       0x84 build/py/compile.o
 .text.compile_power
                0x0000000000006d44       0x28 build/py/compile.o
 .text.compile_if_stmt
                0x0000000000006d6c      0x168 build/py/compile.o
 .text.compile_comprehension
                0x0000000000006ed4       0x94 build/py/compile.o
 .text.compile_atom_paren
                0x0000000000006f68       0x54 build/py/compile.o
 .text.compile_atom_bracket
                0x0000000000006fbc       0xb8 build/py/compile.o
 .text.compile_trailer_paren_helper
                0x0000000000007074      0x1d4 build/py/compile.o
 .text.compile_classdef_helper
                0x0000000000007248       0xa0 build/py/compile.o
 .text.compile_classdef
                0x00000000000072e8       0x30 build/py/compile.o
 .text.compile_trailer_paren
                0x0000000000007318       0x10 build/py/compile.o
 .text.compile_decorated
                0x0000000000007328      0x184 build/py/compile.o
 .text.compile_funcdef_lambdef_param
                0x00000000000074ac      0x144 build/py/compile.o
 .text.compile_atom_expr_normal
                0x00000000000075f0      0x1fc build/py/compile.o
 .text.compile_term
                0x00000000000077ec       0x7c build/py/compile.o
 .text.compile_binary_op
                0x0000000000007868       0x74 build/py/compile.o
 .text.compile_expr_stmt
                0x00000000000078dc      0x1e4 build/py/compile.o
 .text.compile_factor_2
                0x0000000000007ac0       0x44 build/py/compile.o
 .text.compile_not_test_2
                0x0000000000007b04       0x2c build/py/compile.o
 .text.compile_or_and_test
                0x0000000000007b30       0x98 build/py/compile.o
 .text.compile_comparison
                0x0000000000007bc8      0x184 build/py/compile.o
 .text.compile_test_if_expr
                0x0000000000007d4c       0x90 build/py/compile.o
 .text.compile_for_stmt
                0x0000000000007ddc      0x3ec build/py/compile.o
 .text.compile_with_stmt_helper
                0x00000000000081c8       0xf0 build/py/compile.o
 .text.compile_with_stmt
                0x00000000000082b8       0x44 build/py/compile.o
 .text.compile_try_except
                0x00000000000082fc      0x258 build/py/compile.o
 .text.compile_try_finally
                0x0000000000008554       0xcc build/py/compile.o
 .text.compile_try_stmt
                0x0000000000008620       0xc8 build/py/compile.o
 .text.compile_raise_stmt
                0x00000000000086e8       0x70 build/py/compile.o
 .text.compile_assert_stmt
                0x0000000000008758       0xa8 build/py/compile.o
 .text.compile_global_nonlocal_stmt
                0x0000000000008800      0x168 build/py/compile.o
 .text.compile_scope_func_lambda_param.constprop.0
                0x0000000000008968      0x130 build/py/compile.o
 .text.compile_scope_func_param
                0x0000000000008a98        0xc build/py/compile.o
 .text.compile_scope_lambda_param
                0x0000000000008aa4        0xc build/py/compile.o
 .text.compile_atom_brace
                0x0000000000008ab0      0x168 build/py/compile.o
 .text.mp_compile
                0x0000000000008c18      0x4dc build/py/compile.o
                0x0000000000008c18                mp_compile
 .text.strictly_equal
                0x00000000000090f4       0xc8 build/py/emitcommon.o
 .text.mp_emit_common_use_qstr
                0x00000000000091bc       0x58 build/py/emitcommon.o
                0x00000000000091bc                mp_emit_common_use_qstr
 .text.mp_emit_common_use_const_obj
                0x0000000000009214       0x70 build/py/emitcommon.o
                0x0000000000009214                mp_emit_common_use_const_obj
 .text.mp_emit_common_get_id_for_modification
                0x0000000000009284       0x48 build/py/emitcommon.o
                0x0000000000009284                mp_emit_common_get_id_for_modification
 .text.mp_emit_common_id_op
                0x00000000000092cc       0x9c build/py/emitcommon.o
                0x00000000000092cc                mp_emit_common_id_op
 .text.emit_get_cur_to_write_code_info
                0x0000000000009368       0x30 build/py/emitbc.o
 .text.emit_get_cur_to_write_bytecode
                0x0000000000009398       0x48 build/py/emitbc.o
 .text.emit_write_bytecode_raw_byte
                0x00000000000093e0       0x20 build/py/emitbc.o
 .text.emit_bc_new
                0x0000000000009400       0x28 build/py/emitbc.o
                0x0000000000009400                emit_bc_new
 .text.emit_bc_set_max_num_labels
                0x0000000000009428       0x2c build/py/emitbc.o
                0x0000000000009428                emit_bc_set_max_num_labels
 .text.emit_bc_free
                0x0000000000009454       0x28 build/py/emitbc.o
                0x0000000000009454                emit_bc_free
 .text.mp_emit_bc_start_pass
                0x000000000000947c      0x214 build/py/emitbc.o
                0x000000000000947c                mp_emit_bc_start_pass
 .text.mp_emit_bc_end_pass
                0x0000000000009690      0x128 build/py/emitbc.o
                0x0000000000009690                mp_emit_bc_end_pass
 .text.mp_emit_bc_adjust_stack_size
                0x00000000000097b8       0x30 build/py/emitbc.o
                0x00000000000097b8                mp_emit_bc_adjust_stack_size
 .text.emit_write_bytecode_byte
                0x00000000000097e8       0x30 build/py/emitbc.o
 .text.emit_write_bytecode_byte_uint
                0x0000000000009818       0x2c build/py/emitbc.o
 .text.emit_write_bytecode_byte_qstr
                0x0000000000009844       0x48 build/py/emitbc.o
 .text.mp_emit_bc_load_global
                0x000000000000988c       0x10 build/py/emitbc.o
                0x000000000000988c                mp_emit_bc_load_global
 .text.mp_emit_bc_store_global
                0x000000000000989c       0x10 build/py/emitbc.o
                0x000000000000989c                mp_emit_bc_store_global
 .text.mp_emit_bc_delete_global
                0x00000000000098ac       0x10 build/py/emitbc.o
                0x00000000000098ac                mp_emit_bc_delete_global
 .text.emit_write_bytecode_byte_child
                0x00000000000098bc       0x38 build/py/emitbc.o
 .text.mp_emit_bc_delete_local
                0x00000000000098f4       0x14 build/py/emitbc.o
                0x00000000000098f4                mp_emit_bc_delete_local
 .text.emit_bc_call_function_method_helper
                0x0000000000009908       0x20 build/py/emitbc.o
 .text.mp_emit_bc_load_local
                0x0000000000009928       0x2c build/py/emitbc.o
                0x0000000000009928                mp_emit_bc_load_local
 .text.mp_emit_bc_store_local
                0x0000000000009954       0x2c build/py/emitbc.o
                0x0000000000009954                mp_emit_bc_store_local
 .text.emit_write_bytecode_byte_label
                0x0000000000009980       0xf0 build/py/emitbc.o
 .text.mp_emit_bc_set_source_line
                0x0000000000009a70        0x4 build/py/emitbc.o
                0x0000000000009a70                mp_emit_bc_set_source_line
 .text.mp_emit_bc_label_assign
                0x0000000000009a74       0x3c build/py/emitbc.o
                0x0000000000009a74                mp_emit_bc_label_assign
 .text.mp_emit_bc_import
                0x0000000000009ab0       0x3c build/py/emitbc.o
                0x0000000000009ab0                mp_emit_bc_import
 .text.mp_emit_bc_load_const_tok
                0x0000000000009aec       0x50 build/py/emitbc.o
                0x0000000000009aec                mp_emit_bc_load_const_tok
 .text.mp_emit_bc_load_const_small_int
                0x0000000000009b3c       0xcc build/py/emitbc.o
                0x0000000000009b3c                mp_emit_bc_load_const_small_int
 .text.mp_emit_bc_load_const_str
                0x0000000000009c08       0x10 build/py/emitbc.o
                0x0000000000009c08                mp_emit_bc_load_const_str
 .text.mp_emit_bc_load_const_obj
                0x0000000000009c18       0x34 build/py/emitbc.o
                0x0000000000009c18                mp_emit_bc_load_const_obj
 .text.mp_emit_bc_load_null
                0x0000000000009c4c        0xc build/py/emitbc.o
                0x0000000000009c4c                mp_emit_bc_load_null
 .text.mp_emit_bc_load_method
                0x0000000000009c58       0x1c build/py/emitbc.o
                0x0000000000009c58                mp_emit_bc_load_method
 .text.mp_emit_bc_load_build_class
                0x0000000000009c74        0xc build/py/emitbc.o
                0x0000000000009c74                mp_emit_bc_load_build_class
 .text.mp_emit_bc_dup_top
                0x0000000000009c80        0xc build/py/emitbc.o
                0x0000000000009c80                mp_emit_bc_dup_top
 .text.mp_emit_bc_dup_top_two
                0x0000000000009c8c        0xc build/py/emitbc.o
                0x0000000000009c8c                mp_emit_bc_dup_top_two
 .text.mp_emit_bc_pop_top
                0x0000000000009c98        0xc build/py/emitbc.o
                0x0000000000009c98                mp_emit_bc_pop_top
 .text.mp_emit_bc_rot_two
                0x0000000000009ca4        0xc build/py/emitbc.o
                0x0000000000009ca4                mp_emit_bc_rot_two
 .text.mp_emit_bc_attr
                0x0000000000009cb0       0x60 build/py/emitbc.o
                0x0000000000009cb0                mp_emit_bc_attr
 .text.mp_emit_bc_rot_three
                0x0000000000009d10        0xc build/py/emitbc.o
                0x0000000000009d10                mp_emit_bc_rot_three
 .text.mp_emit_bc_subscr
                0x0000000000009d1c       0x50 build/py/emitbc.o
                0x0000000000009d1c                mp_emit_bc_subscr
 .text.mp_emit_bc_jump
                0x0000000000009d6c       0x2c build/py/emitbc.o
                0x0000000000009d6c                mp_emit_bc_jump
 .text.mp_emit_bc_pop_jump_if
                0x0000000000009d98       0x20 build/py/emitbc.o
                0x0000000000009d98                mp_emit_bc_pop_jump_if
 .text.mp_emit_bc_jump_if_or_pop
                0x0000000000009db8       0x20 build/py/emitbc.o
                0x0000000000009db8                mp_emit_bc_jump_if_or_pop
 .text.mp_emit_bc_unwind_jump
                0x0000000000009dd8       0x98 build/py/emitbc.o
                0x0000000000009dd8                mp_emit_bc_unwind_jump
 .text.mp_emit_bc_setup_block
                0x0000000000009e70       0x18 build/py/emitbc.o
                0x0000000000009e70                mp_emit_bc_setup_block
 .text.mp_emit_bc_with_cleanup
                0x0000000000009e88       0x4c build/py/emitbc.o
                0x0000000000009e88                mp_emit_bc_with_cleanup
 .text.mp_emit_bc_end_finally
                0x0000000000009ed4        0xc build/py/emitbc.o
                0x0000000000009ed4                mp_emit_bc_end_finally
 .text.mp_emit_bc_get_iter
                0x0000000000009ee0       0x1c build/py/emitbc.o
                0x0000000000009ee0                mp_emit_bc_get_iter
 .text.mp_emit_bc_for_iter
                0x0000000000009efc       0x10 build/py/emitbc.o
                0x0000000000009efc                mp_emit_bc_for_iter
 .text.mp_emit_bc_for_iter_end
                0x0000000000009f0c        0x8 build/py/emitbc.o
                0x0000000000009f0c                mp_emit_bc_for_iter_end
 .text.mp_emit_bc_pop_except_jump
                0x0000000000009f14       0x2c build/py/emitbc.o
                0x0000000000009f14                mp_emit_bc_pop_except_jump
 .text.mp_emit_bc_unary_op
                0x0000000000009f40        0xc build/py/emitbc.o
                0x0000000000009f40                mp_emit_bc_unary_op
 .text.mp_emit_bc_binary_op
                0x0000000000009f4c       0x68 build/py/emitbc.o
                0x0000000000009f4c                mp_emit_bc_binary_op
 .text.mp_emit_bc_build
                0x0000000000009fb4       0x1c build/py/emitbc.o
                0x0000000000009fb4                mp_emit_bc_build
 .text.mp_emit_bc_store_map
                0x0000000000009fd0        0xc build/py/emitbc.o
                0x0000000000009fd0                mp_emit_bc_store_map
 .text.mp_emit_bc_store_comp
                0x0000000000009fdc       0x20 build/py/emitbc.o
                0x0000000000009fdc                mp_emit_bc_store_comp
 .text.mp_emit_bc_unpack_sequence
                0x0000000000009ffc       0x10 build/py/emitbc.o
                0x0000000000009ffc                mp_emit_bc_unpack_sequence
 .text.mp_emit_bc_unpack_ex
                0x000000000000a00c       0x14 build/py/emitbc.o
                0x000000000000a00c                mp_emit_bc_unpack_ex
 .text.mp_emit_bc_make_function
                0x000000000000a020       0x24 build/py/emitbc.o
                0x000000000000a020                mp_emit_bc_make_function
 .text.mp_emit_bc_make_closure
                0x000000000000a044       0x54 build/py/emitbc.o
                0x000000000000a044                mp_emit_bc_make_closure
 .text.mp_emit_bc_call_function
                0x000000000000a098       0x18 build/py/emitbc.o
                0x000000000000a098                mp_emit_bc_call_function
 .text.mp_emit_bc_call_method
                0x000000000000a0b0       0x18 build/py/emitbc.o
                0x000000000000a0b0                mp_emit_bc_call_method
 .text.mp_emit_bc_return_value
                0x000000000000a0c8       0x28 build/py/emitbc.o
                0x000000000000a0c8                mp_emit_bc_return_value
 .text.mp_emit_bc_raise_varargs
                0x000000000000a0f0       0x28 build/py/emitbc.o
                0x000000000000a0f0                mp_emit_bc_raise_varargs
 .text.mp_emit_bc_yield
                0x000000000000a118       0x30 build/py/emitbc.o
                0x000000000000a118                mp_emit_bc_yield
 .text.mp_emit_bc_start_except_handler
                0x000000000000a148        0x8 build/py/emitbc.o
                0x000000000000a148                mp_emit_bc_start_except_handler
 .text.mp_emit_bc_end_except_handler
                0x000000000000a150        0x8 build/py/emitbc.o
                0x000000000000a150                mp_emit_bc_end_except_handler
 .text.mp_parse_num_base
                0x000000000000a158       0xd8 build/py/parsenumbase.o
                0x000000000000a158                mp_parse_num_base
 .text.raise_exc
                0x000000000000a230       0x38 build/py/parsenum.o
 .text.mp_parse_num_integer
                0x000000000000a268      0x1c0 build/py/parsenum.o
                0x000000000000a268                mp_parse_num_integer
 .text.mp_parse_num_float
                0x000000000000a428       0x2c build/py/parsenum.o
                0x000000000000a428                mp_parse_num_float
 .text.mp_emit_glue_new_raw_code
                0x000000000000a454       0x28 build/py/emitglue.o
                0x000000000000a454                mp_emit_glue_new_raw_code
 .text.mp_emit_glue_assign_bytecode
                0x000000000000a47c       0x20 build/py/emitglue.o
                0x000000000000a47c                mp_emit_glue_assign_bytecode
 .text.mp_make_function_from_raw_code
                0x000000000000a49c       0x44 build/py/emitglue.o
                0x000000000000a49c                mp_make_function_from_raw_code
 .text.mp_make_closure_from_raw_code
                0x000000000000a4e0       0x44 build/py/emitglue.o
                0x000000000000a4e0                mp_make_closure_from_raw_code
 .text.mp_globals_locals_set_from_nlr_jump_callback
                0x000000000000a524       0x14 build/py/runtime.o
                0x000000000000a524                mp_globals_locals_set_from_nlr_jump_callback
 .text.type_get_iternext
                0x000000000000a538       0x58 build/py/runtime.o
 .text.mp_init  0x000000000000a590       0x64 build/py/runtime.o
                0x000000000000a590                mp_init
 .text.mp_deinit
                0x000000000000a5f4        0x4 build/py/runtime.o
                0x000000000000a5f4                mp_deinit
 .text.mp_load_build_class
                0x000000000000a5f8        0xc build/py/runtime.o
                0x000000000000a5f8                mp_load_build_class
 .text.mp_store_name
                0x000000000000a604       0x18 build/py/runtime.o
                0x000000000000a604                mp_store_name
 .text.mp_delete_name
                0x000000000000a61c       0x14 build/py/runtime.o
                0x000000000000a61c                mp_delete_name
 .text.mp_store_global
                0x000000000000a630       0x18 build/py/runtime.o
                0x000000000000a630                mp_store_global
 .text.mp_delete_global
                0x000000000000a648       0x14 build/py/runtime.o
                0x000000000000a648                mp_delete_global
 .text.mp_convert_member_lookup
                0x000000000000a65c       0x94 build/py/runtime.o
                0x000000000000a65c                mp_convert_member_lookup
 .text.mp_load_method_maybe
                0x000000000000a6f0       0xd8 build/py/runtime.o
                0x000000000000a6f0                mp_load_method_maybe
 .text.mp_load_method_protected
                0x000000000000a7c8       0x78 build/py/runtime.o
                0x000000000000a7c8                mp_load_method_protected
 .text.mp_import_name
                0x000000000000a840       0x34 build/py/runtime.o
                0x000000000000a840                mp_import_name
 .text.mp_import_all
                0x000000000000a874       0x84 build/py/runtime.o
                0x000000000000a874                mp_import_all
 .text.mp_raise_msg
                0x000000000000a8f8       0x1c build/py/runtime.o
                0x000000000000a8f8                mp_raise_msg
 .text.mp_load_global
                0x000000000000a914       0x6c build/py/runtime.o
                0x000000000000a914                mp_load_global
 .text.mp_load_name
                0x000000000000a980       0x5c build/py/runtime.o
                0x000000000000a980                mp_load_name
 .text.mp_load_method
                0x000000000000a9dc       0x3c build/py/runtime.o
                0x000000000000a9dc                mp_load_method
 .text.mp_load_attr
                0x000000000000aa18       0x28 build/py/runtime.o
                0x000000000000aa18                mp_load_attr
 .text.mp_store_attr
                0x000000000000aa40       0x78 build/py/runtime.o
                0x000000000000aa40                mp_store_attr
 .text.mp_raise_msg_varg
                0x000000000000aab8       0x70 build/py/runtime.o
                0x000000000000aab8                mp_raise_msg_varg
 .text.mp_import_from
                0x000000000000ab28      0x11c build/py/runtime.o
                0x000000000000ab28                mp_import_from
 .text.m_malloc_fail
                0x000000000000ac44       0x40 build/py/runtime.o
                0x000000000000ac44                m_malloc_fail
 .text.mp_raise_ValueError
                0x000000000000ac84       0x18 build/py/runtime.o
                0x000000000000ac84                mp_raise_ValueError
 .text.mp_raise_TypeError
                0x000000000000ac9c       0x18 build/py/runtime.o
                0x000000000000ac9c                mp_raise_TypeError
 .text.mp_unary_op
                0x000000000000acb4      0x19c build/py/runtime.o
                0x000000000000acb4                mp_unary_op
 .text.mp_call_function_n_kw
                0x000000000000ae50       0x68 build/py/runtime.o
                0x000000000000ae50                mp_call_function_n_kw
 .text.mp_call_function_0
                0x000000000000aeb8       0x10 build/py/runtime.o
                0x000000000000aeb8                mp_call_function_0
 .text.mp_parse_compile_execute
                0x000000000000aec8       0x90 build/py/runtime.o
                0x000000000000aec8                mp_parse_compile_execute
 .text.mp_call_function_1
                0x000000000000af58       0x24 build/py/runtime.o
                0x000000000000af58                mp_call_function_1
 .text.mp_call_method_n_kw
                0x000000000000af7c       0x2c build/py/runtime.o
                0x000000000000af7c                mp_call_method_n_kw
 .text.mp_make_raise_obj
                0x000000000000afa8       0x70 build/py/runtime.o
                0x000000000000afa8                mp_make_raise_obj
 .text.mp_resume
                0x000000000000b018      0x1c0 build/py/runtime.o
                0x000000000000b018                mp_resume
 .text.mp_getiter
                0x000000000000b1d8       0xec build/py/runtime.o
                0x000000000000b1d8                mp_getiter
 .text.mp_iternext_allow_raise
                0x000000000000b2c4       0x80 build/py/runtime.o
                0x000000000000b2c4                mp_iternext_allow_raise
 .text.mp_iternext
                0x000000000000b344       0xd0 build/py/runtime.o
                0x000000000000b344                mp_iternext
 .text.mp_call_method_n_kw_var
                0x000000000000b414      0x438 build/py/runtime.o
                0x000000000000b414                mp_call_method_n_kw_var
 .text.mp_unpack_sequence
                0x000000000000b84c       0xf0 build/py/runtime.o
                0x000000000000b84c                mp_unpack_sequence
 .text.mp_unpack_ex
                0x000000000000b93c      0x1b4 build/py/runtime.o
                0x000000000000b93c                mp_unpack_ex
 .text.mp_binary_op
                0x000000000000baf0      0x3c8 build/py/runtime.o
                0x000000000000baf0                mp_binary_op
 .text.mp_raise_NotImplementedError
                0x000000000000beb8       0x18 build/py/runtime.o
                0x000000000000beb8                mp_raise_NotImplementedError
 .text.mp_raise_type_arg
                0x000000000000bed0       0x20 build/py/runtime.o
                0x000000000000bed0                mp_raise_type_arg
 .text.mp_raise_StopIteration
                0x000000000000bef0       0x20 build/py/runtime.o
                0x000000000000bef0                mp_raise_StopIteration
 .text.mp_raise_TypeError_int_conversion
                0x000000000000bf10       0x14 build/py/runtime.o
                0x000000000000bf10                mp_raise_TypeError_int_conversion
 .text.mp_raise_OSError
                0x000000000000bf24       0x1c build/py/runtime.o
                0x000000000000bf24                mp_raise_OSError
 .text.mp_handle_pending
                0x000000000000bf40       0x34 build/py/scheduler.o
                0x000000000000bf40                mp_handle_pending
 .text.mp_arg_error_terse_mismatch
                0x000000000000bf74       0x14 build/py/argcheck.o
                0x000000000000bf74                mp_arg_error_terse_mismatch
 .text.mp_arg_check_num_sig
                0x000000000000bf88       0x4c build/py/argcheck.o
                0x000000000000bf88                mp_arg_check_num_sig
 .text.mp_arg_parse_all
                0x000000000000bfd4      0x104 build/py/argcheck.o
                0x000000000000bfd4                mp_arg_parse_all
 .text.mp_map_init
                0x000000000000c0d8       0x40 build/py/map.o
                0x000000000000c0d8                mp_map_init
 .text.mp_map_init_fixed_table
                0x000000000000c118       0x14 build/py/map.o
                0x000000000000c118                mp_map_init_fixed_table
 .text.mp_map_clear
                0x000000000000c12c       0x40 build/py/map.o
                0x000000000000c12c                mp_map_clear
 .text.mp_map_lookup
                0x000000000000c16c      0x240 build/py/map.o
                0x000000000000c16c                mp_map_lookup
 .text.mp_map_rehash
                0x000000000000c3ac       0xc4 build/py/map.o
 .text.mp_obj_malloc_helper
                0x000000000000c470       0x24 build/py/obj.o
                0x000000000000c470                mp_obj_malloc_helper
 .text.mp_obj_get_type
                0x000000000000c494       0x24 build/py/obj.o
                0x000000000000c494                mp_obj_get_type
 .text.mp_obj_get_type_str
                0x000000000000c4b8       0x18 build/py/obj.o
                0x000000000000c4b8                mp_obj_get_type_str
 .text.mp_obj_print_helper
                0x000000000000c4d0       0x58 build/py/obj.o
                0x000000000000c4d0                mp_obj_print_helper
 .text.mp_obj_print_exception
                0x000000000000c528       0xfc build/py/obj.o
                0x000000000000c528                mp_obj_print_exception
 .text.mp_obj_is_callable
                0x000000000000c624       0x58 build/py/obj.o
                0x000000000000c624                mp_obj_is_callable
 .text.mp_obj_get_int_maybe
                0x000000000000c67c       0x98 build/py/obj.o
                0x000000000000c67c                mp_obj_get_int_maybe
 .text.mp_obj_get_int
                0x000000000000c714       0x38 build/py/obj.o
                0x000000000000c714                mp_obj_get_int
 .text.mp_obj_get_int_truncated
                0x000000000000c74c       0x28 build/py/obj.o
                0x000000000000c74c                mp_obj_get_int_truncated
 .text.mp_obj_get_array
                0x000000000000c774       0x48 build/py/obj.o
                0x000000000000c774                mp_obj_get_array
 .text.mp_get_index
                0x000000000000c7bc       0xa0 build/py/obj.o
                0x000000000000c7bc                mp_get_index
 .text.mp_obj_id
                0x000000000000c85c       0x20 build/py/obj.o
                0x000000000000c85c                mp_obj_id
 .text.mp_obj_len_maybe
                0x000000000000c87c       0x9c build/py/obj.o
                0x000000000000c87c                mp_obj_len_maybe
 .text.mp_obj_is_true
                0x000000000000c918       0xa0 build/py/obj.o
                0x000000000000c918                mp_obj_is_true
 .text.mp_obj_equal_not_equal
                0x000000000000c9b8      0x1a8 build/py/obj.o
                0x000000000000c9b8                mp_obj_equal_not_equal
 .text.mp_obj_equal
                0x000000000000cb60       0x20 build/py/obj.o
                0x000000000000cb60                mp_obj_equal
 .text.mp_obj_len
                0x000000000000cb80       0x24 build/py/obj.o
                0x000000000000cb80                mp_obj_len
 .text.mp_obj_subscr
                0x000000000000cba4       0x7c build/py/obj.o
                0x000000000000cba4                mp_obj_subscr
 .text.mp_get_buffer
                0x000000000000cc20       0x4c build/py/obj.o
                0x000000000000cc20                mp_get_buffer
 .text.mp_get_buffer_raise
                0x000000000000cc6c       0x28 build/py/obj.o
                0x000000000000cc6c                mp_get_buffer_raise
 .text.bool_binary_op
                0x000000000000cc94       0x14 build/py/objbool.o
 .text.bool_unary_op
                0x000000000000cca8       0x24 build/py/objbool.o
 .text.bool_print
                0x000000000000cccc       0x20 build/py/objbool.o
 .text.bool_make_new
                0x000000000000ccec       0x50 build/py/objbool.o
 .text.mp_call_method_self_n_kw
                0x000000000000cd3c       0xc4 build/py/objboundmeth.o
                0x000000000000cd3c                mp_call_method_self_n_kw
 .text.bound_meth_call
                0x000000000000ce00       0x18 build/py/objboundmeth.o
 .text.mp_obj_new_bound_meth
                0x000000000000ce18       0x34 build/py/objboundmeth.o
                0x000000000000ce18                mp_obj_new_bound_meth
 .text.mp_obj_new_cell
                0x000000000000ce4c       0x30 build/py/objcell.o
                0x000000000000ce4c                mp_obj_new_cell
 .text.closure_call
                0x000000000000ce7c       0xf8 build/py/objclosure.o
 .text.mp_obj_new_closure
                0x000000000000cf74       0x68 build/py/objclosure.o
                0x000000000000cf74                mp_obj_new_closure
 .text.dict_view_getiter
                0x000000000000cfdc       0x28 build/py/objdict.o
 .text.dict_getiter
                0x000000000000d004       0x20 build/py/objdict.o
 .text.mp_ensure_not_fixed
                0x000000000000d024       0x1c build/py/objdict.o
 .text.dict_values
                0x000000000000d040       0x38 build/py/objdict.o
 .text.dict_get_helper
                0x000000000000d078       0xa0 build/py/objdict.o
 .text.dict_setdefault
                0x000000000000d118        0x8 build/py/objdict.o
 .text.dict_pop
                0x000000000000d120        0x8 build/py/objdict.o
 .text.dict_get
                0x000000000000d128        0x8 build/py/objdict.o
 .text.dict_clear
                0x000000000000d130       0x2c build/py/objdict.o
 .text.dict_unary_op
                0x000000000000d15c       0x44 build/py/objdict.o
 .text.dict_view_unary_op
                0x000000000000d1a0       0x28 build/py/objdict.o
 .text.dict_iter_next
                0x000000000000d1c8       0x44 build/py/objdict.o
 .text.dict_view_it_iternext
                0x000000000000d20c       0x60 build/py/objdict.o
 .text.dict_view_print
                0x000000000000d26c       0xc0 build/py/objdict.o
 .text.dict_print
                0x000000000000d32c       0xbc build/py/objdict.o
 .text.dict_popitem
                0x000000000000d3e8       0x80 build/py/objdict.o
 .text.dict_binary_op
                0x000000000000d468       0xd4 build/py/objdict.o
 .text.dict_view_binary_op
                0x000000000000d53c       0x24 build/py/objdict.o
 .text.dict_items
                0x000000000000d560       0x34 build/py/objdict.o
 .text.dict_keys
                0x000000000000d594       0x38 build/py/objdict.o
 .text.mp_obj_is_dict_or_ordereddict
                0x000000000000d5cc       0x3c build/py/objdict.o
                0x000000000000d5cc                mp_obj_is_dict_or_ordereddict
 .text.dict_update
                0x000000000000d608      0x18c build/py/objdict.o
 .text.mp_obj_dict_get
                0x000000000000d794       0x40 build/py/objdict.o
                0x000000000000d794                mp_obj_dict_get
 .text.mp_obj_dict_init
                0x000000000000d7d4       0x10 build/py/objdict.o
                0x000000000000d7d4                mp_obj_dict_init
 .text.mp_obj_new_dict
                0x000000000000d7e4       0x34 build/py/objdict.o
                0x000000000000d7e4                mp_obj_new_dict
 .text.mp_obj_dict_make_new
                0x000000000000d818       0x7c build/py/objdict.o
                0x000000000000d818                mp_obj_dict_make_new
 .text.mp_obj_dict_copy
                0x000000000000d894       0x50 build/py/objdict.o
                0x000000000000d894                mp_obj_dict_copy
 .text.mp_obj_dict_len
                0x000000000000d8e4        0xc build/py/objdict.o
                0x000000000000d8e4                mp_obj_dict_len
 .text.mp_obj_dict_store
                0x000000000000d8f0       0x48 build/py/objdict.o
                0x000000000000d8f0                mp_obj_dict_store
 .text.mp_obj_dict_delete
                0x000000000000d938       0x38 build/py/objdict.o
                0x000000000000d938                mp_obj_dict_delete
 .text.dict_subscr
                0x000000000000d970       0x60 build/py/objdict.o
 .text.mp_obj_exception_make_new
                0x000000000000d9d0       0xb4 build/py/objexcept.o
                0x000000000000d9d0                mp_obj_exception_make_new
 .text.decompress_error_text_maybe
                0x000000000000da84       0xb4 build/py/objexcept.o
 .text.mp_obj_exception_print
                0x000000000000db38       0xe0 build/py/objexcept.o
                0x000000000000db38                mp_obj_exception_print
 .text.exc_add_strn
                0x000000000000dc18       0xac build/py/objexcept.o
 .text.mp_obj_is_native_exception_instance
                0x000000000000dcc4       0x64 build/py/objexcept.o
                0x000000000000dcc4                mp_obj_is_native_exception_instance
 .text.get_native_exception
                0x000000000000dd28       0x30 build/py/objexcept.o
 .text.mp_obj_exception_get_value
                0x000000000000dd58       0x40 build/py/objexcept.o
                0x000000000000dd58                mp_obj_exception_get_value
 .text.mp_obj_exception_attr
                0x000000000000dd98       0x74 build/py/objexcept.o
                0x000000000000dd98                mp_obj_exception_attr
 .text.mp_obj_new_exception
                0x000000000000de0c       0x10 build/py/objexcept.o
                0x000000000000de0c                mp_obj_new_exception
 .text.mp_obj_new_exception_msg
                0x000000000000de1c       0x8c build/py/objexcept.o
                0x000000000000de1c                mp_obj_new_exception_msg
 .text.mp_obj_new_exception_msg_vlist
                0x000000000000dea8      0x128 build/py/objexcept.o
                0x000000000000dea8                mp_obj_new_exception_msg_vlist
 .text.mp_obj_is_exception_type
                0x000000000000dfd0       0x54 build/py/objexcept.o
                0x000000000000dfd0                mp_obj_is_exception_type
 .text.mp_obj_is_exception_instance
                0x000000000000e024       0x14 build/py/objexcept.o
                0x000000000000e024                mp_obj_is_exception_instance
 .text.mp_obj_exception_match
                0x000000000000e038       0x40 build/py/objexcept.o
                0x000000000000e038                mp_obj_exception_match
 .text.mp_obj_exception_add_traceback
                0x000000000000e078       0xac build/py/objexcept.o
                0x000000000000e078                mp_obj_exception_add_traceback
 .text.mp_obj_exception_get_traceback
                0x000000000000e124       0x44 build/py/objexcept.o
                0x000000000000e124                mp_obj_exception_get_traceback
 .text.fun_builtin_0_call
                0x000000000000e168       0x34 build/py/objfun.o
 .text.fun_builtin_1_call
                0x000000000000e19c       0x3c build/py/objfun.o
 .text.fun_builtin_2_call
                0x000000000000e1d8       0x3c build/py/objfun.o
 .text.fun_builtin_3_call
                0x000000000000e214       0x40 build/py/objfun.o
 .text.fun_bc_call
                0x000000000000e254      0x158 build/py/objfun.o
 .text.fun_builtin_var_call
                0x000000000000e3ac       0x8c build/py/objfun.o
 .text.mp_obj_fun_get_name
                0x000000000000e438       0x4c build/py/objfun.o
                0x000000000000e438                mp_obj_fun_get_name
 .text.mp_obj_new_fun_bc
                0x000000000000e484       0xb8 build/py/objfun.o
                0x000000000000e484                mp_obj_new_fun_bc
 .text.gen_wrap_call
                0x000000000000e53c       0xd0 build/py/objgenerator.o
 .text.gen_instance_print
                0x000000000000e60c       0x3c build/py/objgenerator.o
 .text.mp_obj_gen_resume
                0x000000000000e648      0x120 build/py/objgenerator.o
                0x000000000000e648                mp_obj_gen_resume
 .text.gen_resume_and_raise
                0x000000000000e768       0x68 build/py/objgenerator.o
 .text.gen_instance_throw
                0x000000000000e7d0       0x2c build/py/objgenerator.o
 .text.gen_instance_send
                0x000000000000e7fc        0xc build/py/objgenerator.o
 .text.gen_instance_iternext
                0x000000000000e808       0x10 build/py/objgenerator.o
 .text.gen_instance_close
                0x000000000000e818       0x70 build/py/objgenerator.o
 .text.it_iternext
                0x000000000000e888       0x88 build/py/objgetitemiter.o
 .text.mp_obj_new_getitem_iter
                0x000000000000e910       0x30 build/py/objgetitemiter.o
                0x000000000000e910                mp_obj_new_getitem_iter
 .text.mp_obj_int_unary_op
                0x000000000000e940        0x8 build/py/objint.o
                0x000000000000e940                mp_obj_int_unary_op
 .text.int_to_bytes
                0x000000000000e948       0xa0 build/py/objint.o
 .text.mp_obj_int_make_new
                0x000000000000e9e8       0xbc build/py/objint.o
 .text.mp_int_format_size
                0x000000000000eaa4       0x6c build/py/objint.o
                0x000000000000eaa4                mp_int_format_size
 .text.mp_obj_int_formatted
                0x000000000000eb10      0x198 build/py/objint.o
                0x000000000000eb10                mp_obj_int_formatted
 .text.mp_obj_int_print
                0x000000000000eca8       0x68 build/py/objint.o
                0x000000000000eca8                mp_obj_int_print
 .text.mp_obj_int_sign
                0x000000000000ed10       0x20 build/py/objint.o
                0x000000000000ed10                mp_obj_int_sign
 .text.mp_obj_new_int_from_str_len
                0x000000000000ed30       0x1c build/py/objint.o
                0x000000000000ed30                mp_obj_new_int_from_str_len
 .text.mp_obj_new_int_from_ll
                0x000000000000ed4c       0x1c build/py/objint.o
                0x000000000000ed4c                mp_obj_new_int_from_ll
 .text.mp_obj_new_int_from_uint
                0x000000000000ed68       0x30 build/py/objint.o
                0x000000000000ed68                mp_obj_new_int_from_uint
 .text.int_from_bytes
                0x000000000000ed98       0x74 build/py/objint.o
 .text.mp_obj_new_int
                0x000000000000ee0c       0x30 build/py/objint.o
                0x000000000000ee0c                mp_obj_new_int
 .text.mp_obj_int_get_truncated
                0x000000000000ee3c        0x8 build/py/objint.o
                0x000000000000ee3c                mp_obj_int_get_truncated
 .text.mp_obj_int_get_checked
                0x000000000000ee44        0x8 build/py/objint.o
                0x000000000000ee44                mp_obj_int_get_checked
 .text.mp_obj_int_binary_op_extra_cases
                0x000000000000ee4c       0xa4 build/py/objint.o
                0x000000000000ee4c                mp_obj_int_binary_op_extra_cases
 .text.mp_obj_int_binary_op
                0x000000000000eef0        0x4 build/py/objint.o
                0x000000000000eef0                mp_obj_int_binary_op
 .text.list_unary_op
                0x000000000000eef4       0x40 build/py/objlist.o
 .text.list_getiter
                0x000000000000ef34       0x24 build/py/objlist.o
 .text.list_reverse
                0x000000000000ef58       0x50 build/py/objlist.o
 .text.list_it_iternext
                0x000000000000efa8       0x30 build/py/objlist.o
 .text.list_pop
                0x000000000000efd8       0xcc build/py/objlist.o
 .text.list_index
                0x000000000000f0a4       0x14 build/py/objlist.o
 .text.mp_obj_list_remove
                0x000000000000f0b8       0x34 build/py/objlist.o
                0x000000000000f0b8                mp_obj_list_remove
 .text.list_clear
                0x000000000000f0ec       0x44 build/py/objlist.o
 .text.mp_obj_list_append
                0x000000000000f130       0x78 build/py/objlist.o
                0x000000000000f130                mp_obj_list_append
 .text.list_extend_from_iter
                0x000000000000f1a8       0x48 build/py/objlist.o
 .text.list_insert
                0x000000000000f1f0       0x80 build/py/objlist.o
 .text.list_count
                0x000000000000f270        0xc build/py/objlist.o
 .text.list_print
                0x000000000000f27c       0x84 build/py/objlist.o
 .text.mp_quicksort
                0x000000000000f300      0x160 build/py/objlist.o
 .text.mp_obj_list_sort
                0x000000000000f460       0x7c build/py/objlist.o
                0x000000000000f460                mp_obj_list_sort
 .text.list_extend
                0x000000000000f4dc       0xc0 build/py/objlist.o
 .text.mp_obj_list_init
                0x000000000000f59c       0x60 build/py/objlist.o
                0x000000000000f59c                mp_obj_list_init
 .text.list_new
                0x000000000000f5fc       0x34 build/py/objlist.o
 .text.list_binary_op
                0x000000000000f630      0x15c build/py/objlist.o
 .text.mp_obj_list_make_new
                0x000000000000f78c       0x4c build/py/objlist.o
                0x000000000000f78c                mp_obj_list_make_new
 .text.mp_obj_new_list
                0x000000000000f7d8       0x4c build/py/objlist.o
                0x000000000000f7d8                mp_obj_new_list
 .text.list_copy
                0x000000000000f824        0xc build/py/objlist.o
 .text.mp_obj_list_get
                0x000000000000f830       0x10 build/py/objlist.o
                0x000000000000f830                mp_obj_list_get
 .text.mp_obj_list_set_len
                0x000000000000f840        0x8 build/py/objlist.o
                0x000000000000f840                mp_obj_list_set_len
 .text.mp_obj_list_store
                0x000000000000f848       0x3c build/py/objlist.o
                0x000000000000f848                mp_obj_list_store
 .text.list_subscr
                0x000000000000f884       0x68 build/py/objlist.o
 .text.map_iternext
                0x000000000000f8ec       0x88 build/py/objmap.o
 .text.map_make_new
                0x000000000000f974       0x98 build/py/objmap.o
 .text.module_attr
                0x000000000000fa0c       0x70 build/py/objmodule.o
 .text.module_print
                0x000000000000fa7c       0x58 build/py/objmodule.o
 .text.mp_obj_new_module
                0x000000000000fad4       0x80 build/py/objmodule.o
                0x000000000000fad4                mp_obj_new_module
 .text.mp_module_get_builtin
                0x000000000000fb54       0xa4 build/py/objmodule.o
                0x000000000000fb54                mp_module_get_builtin
 .text.object_make_new
                0x000000000000fbf8       0x34 build/py/objobject.o
 .text.polymorph_it_iternext
                0x000000000000fc2c        0xc build/py/objpolyiter.o
 .text.none_print
                0x000000000000fc38        0xc build/py/objnone.o
 .text.range_it_iternext
                0x000000000000fc44       0x4c build/py/objrange.o
 .text.range_unary_op
                0x000000000000fc90       0x60 build/py/objrange.o
 .text.range_getiter
                0x000000000000fcf0       0x24 build/py/objrange.o
 .text.range_print
                0x000000000000fd14       0x60 build/py/objrange.o
 .text.range_make_new
                0x000000000000fd74       0xac build/py/objrange.o
 .text.range_subscr
                0x000000000000fe20       0x78 build/py/objrange.o
 .text.singleton_print
                0x000000000000fe98       0x10 build/py/objsingleton.o
 .text.arg_looks_integer
                0x000000000000fea8       0x40 build/py/objstr.o
 .text.mp_obj_new_str_iterator
                0x000000000000fee8       0x24 build/py/objstr.o
 .text.mp_obj_new_bytes_iterator
                0x000000000000ff0c       0x24 build/py/objstr.o
 .text.bytes_it_iternext
                0x000000000000ff30       0x70 build/py/objstr.o
 .text.terse_str_format_value_error
                0x000000000000ffa0       0x14 build/py/objstr.o
 .text.str_check_arg_type
                0x000000000000ffb4       0x38 build/py/objstr.o
 .text.mp_obj_new_str_type_from_vstr
                0x000000000000ffec       0xbc build/py/objstr.o
 .text.str_caseconv
                0x00000000000100a8       0x9c build/py/objstr.o
 .text.str_lower
                0x0000000000010144       0x10 build/py/objstr.o
 .text.str_upper
                0x0000000000010154       0x10 build/py/objstr.o
 .text.str_join
                0x0000000000010164      0x1c0 build/py/objstr.o
 .text.str_uni_istype
                0x0000000000010324       0xe8 build/py/objstr.o
 .text.str_isspace
                0x000000000001040c       0x10 build/py/objstr.o
 .text.str_isalpha
                0x000000000001041c       0x10 build/py/objstr.o
 .text.str_isdigit
                0x000000000001042c       0x10 build/py/objstr.o
 .text.str_isupper
                0x000000000001043c       0x10 build/py/objstr.o
 .text.str_islower
                0x000000000001044c       0x10 build/py/objstr.o
 .text.str_to_int
                0x000000000001045c       0x58 build/py/objstr.o
 .text.mp_obj_str_get_buffer
                0x00000000000104b4       0x68 build/py/objstr.o
                0x00000000000104b4                mp_obj_str_get_buffer
 .text.mp_str_print_quoted
                0x000000000001051c      0x184 build/py/objstr.o
                0x000000000001051c                mp_str_print_quoted
 .text.str_print
                0x00000000000106a0       0xd8 build/py/objstr.o
 .text.find_subbytes
                0x0000000000010778       0x94 build/py/objstr.o
                0x0000000000010778                find_subbytes
 .text.mp_obj_str_binary_op
                0x000000000001080c      0x264 build/py/objstr.o
                0x000000000001080c                mp_obj_str_binary_op
 .text.str_replace
                0x0000000000010a70      0x220 build/py/objstr.o
 .text.str_finder
                0x0000000000010c90      0x15c build/py/objstr.o
 .text.str_find
                0x0000000000010dec        0xc build/py/objstr.o
 .text.str_rfind
                0x0000000000010df8        0xc build/py/objstr.o
 .text.str_index
                0x0000000000010e04        0xc build/py/objstr.o
 .text.str_rindex
                0x0000000000010e10        0xc build/py/objstr.o
 .text.mp_obj_new_str_copy
                0x0000000000010e1c       0x74 build/py/objstr.o
                0x0000000000010e1c                mp_obj_new_str_copy
 .text.mp_obj_new_str_via_qstr
                0x0000000000010e90       0x1c build/py/objstr.o
                0x0000000000010e90                mp_obj_new_str_via_qstr
 .text.bytes_subscr
                0x0000000000010eac       0xac build/py/objstr.o
 .text.str_it_iternext
                0x0000000000010f58       0x74 build/py/objstr.o
 .text.mp_obj_new_str_from_vstr
                0x0000000000010fcc       0x10 build/py/objstr.o
                0x0000000000010fcc                mp_obj_new_str_from_vstr
 .text.mp_obj_new_bytes_from_vstr
                0x0000000000010fdc       0x10 build/py/objstr.o
                0x0000000000010fdc                mp_obj_new_bytes_from_vstr
 .text.mp_obj_new_str
                0x0000000000010fec       0x4c build/py/objstr.o
                0x0000000000010fec                mp_obj_new_str
 .text.mp_obj_str_make_new
                0x0000000000011038      0x14c build/py/objstr.o
                0x0000000000011038                mp_obj_str_make_new
 .text.mp_obj_new_bytes
                0x0000000000011184       0x14 build/py/objstr.o
                0x0000000000011184                mp_obj_new_bytes
 .text.bytes_make_new
                0x0000000000011198      0x1c4 build/py/objstr.o
 .text.mp_obj_new_str_of_type
                0x000000000001135c       0x24 build/py/objstr.o
                0x000000000001135c                mp_obj_new_str_of_type
 .text.str_uni_strip
                0x0000000000011380      0x1bc build/py/objstr.o
 .text.str_strip
                0x000000000001153c       0x10 build/py/objstr.o
 .text.str_lstrip
                0x000000000001154c       0x10 build/py/objstr.o
 .text.str_rstrip
                0x000000000001155c       0x10 build/py/objstr.o
 .text.mp_obj_str_equal
                0x000000000001156c       0xf8 build/py/objstr.o
                0x000000000001156c                mp_obj_str_equal
 .text.mp_obj_str_get_qstr
                0x0000000000011664       0x4c build/py/objstr.o
                0x0000000000011664                mp_obj_str_get_qstr
 .text.mp_obj_str_get_str
                0x00000000000116b0       0x6c build/py/objstr.o
                0x00000000000116b0                mp_obj_str_get_str
 .text.mp_obj_str_get_data
                0x000000000001171c       0x84 build/py/objstr.o
                0x000000000001171c                mp_obj_str_get_data
 .text.mp_obj_str_split
                0x00000000000117a0      0x22c build/py/objstr.o
                0x00000000000117a0                mp_obj_str_split
 .text.str_rsplit
                0x00000000000119cc      0x1bc build/py/objstr.o
 .text.str_startswith
                0x0000000000011b88       0xd4 build/py/objstr.o
 .text.str_endswith
                0x0000000000011c5c       0xa8 build/py/objstr.o
 .text.mp_obj_str_format_helper
                0x0000000000011d04      0x6fc build/py/objstr.o
 .text.mp_obj_str_format
                0x0000000000012400       0x8c build/py/objstr.o
                0x0000000000012400                mp_obj_str_format
 .text.mp_obj_str_intern_checked
                0x000000000001248c       0x20 build/py/objstr.o
                0x000000000001248c                mp_obj_str_intern_checked
 .text.mp_obj_tuple_getiter
                0x00000000000124ac       0x24 build/py/objtuple.o
                0x00000000000124ac                mp_obj_tuple_getiter
 .text.tuple_it_iternext
                0x00000000000124d0       0x30 build/py/objtuple.o
 .text.mp_obj_tuple_print
                0x0000000000012500       0xa4 build/py/objtuple.o
                0x0000000000012500                mp_obj_tuple_print
 .text.tuple_index
                0x00000000000125a4       0x18 build/py/objtuple.o
 .text.tuple_count
                0x00000000000125bc       0x10 build/py/objtuple.o
 .text.mp_obj_tuple_unary_op
                0x00000000000125cc       0xa4 build/py/objtuple.o
                0x00000000000125cc                mp_obj_tuple_unary_op
 .text.mp_obj_tuple_subscr
                0x0000000000012670       0x44 build/py/objtuple.o
                0x0000000000012670                mp_obj_tuple_subscr
 .text.mp_obj_new_tuple
                0x00000000000126b4       0x68 build/py/objtuple.o
                0x00000000000126b4                mp_obj_new_tuple
 .text.mp_obj_tuple_make_new
                0x000000000001271c       0xe8 build/py/objtuple.o
 .text.mp_obj_tuple_binary_op
                0x0000000000012804      0x198 build/py/objtuple.o
                0x0000000000012804                mp_obj_tuple_binary_op
 .text.mp_obj_tuple_get
                0x000000000001299c       0x14 build/py/objtuple.o
                0x000000000001299c                mp_obj_tuple_get
 .text.mp_obj_tuple_del
                0x00000000000129b0        0x4 build/py/objtuple.o
                0x00000000000129b0                mp_obj_tuple_del
 .text.instance_count_native_bases
                0x00000000000129b4       0x44 build/py/objtype.o
 .text.native_base_init_wrapper
                0x00000000000129f8       0x60 build/py/objtype.o
 .text.mp_obj_class_lookup
                0x0000000000012a58      0x148 build/py/objtype.o
 .text.type_attr
                0x0000000000012ba0       0x98 build/py/objtype.o
 .text.super_attr
                0x0000000000012c38       0xb0 build/py/objtype.o
 .text.type_call
                0x0000000000012ce8       0x30 build/py/objtype.o
 .text.mp_obj_instance_getiter
                0x0000000000012d18       0xbc build/py/objtype.o
                0x0000000000012d18                mp_obj_instance_getiter
 .text.mp_obj_instance_attr
                0x0000000000012dd4       0xe4 build/py/objtype.o
 .text.type_print
                0x0000000000012eb8       0x10 build/py/objtype.o
 .text.static_class_method_make_new
                0x0000000000012ec8       0x40 build/py/objtype.o
 .text.super_make_new
                0x0000000000012f08       0x6c build/py/objtype.o
 .text.instance_subscr
                0x0000000000012f74       0xc8 build/py/objtype.o
 .text.instance_binary_op
                0x000000000001303c       0xc4 build/py/objtype.o
 .text.instance_unary_op
                0x0000000000013100      0x10c build/py/objtype.o
 .text.super_print
                0x000000000001320c       0x68 build/py/objtype.o
 .text.instance_print
                0x0000000000013274      0x10c build/py/objtype.o
 .text.instance_get_buffer
                0x0000000000013380       0x94 build/py/objtype.o
 .text.mp_obj_instance_make_new
                0x0000000000013414      0x228 build/py/objtype.o
 .text.mp_obj_instance_call
                0x000000000001363c       0xa8 build/py/objtype.o
                0x000000000001363c                mp_obj_instance_call
 .text.mp_obj_instance_is_callable
                0x00000000000136e4       0x48 build/py/objtype.o
                0x00000000000136e4                mp_obj_instance_is_callable
 .text.mp_obj_new_type
                0x000000000001372c      0x27c build/py/objtype.o
                0x000000000001372c                mp_obj_new_type
 .text.type_make_new
                0x00000000000139a8       0x6c build/py/objtype.o
 .text.mp_load_super_method
                0x0000000000013a14       0x3c build/py/objtype.o
                0x0000000000013a14                mp_load_super_method
 .text.mp_obj_is_subclass_fast
                0x0000000000013a50       0x4c build/py/objtype.o
                0x0000000000013a50                mp_obj_is_subclass_fast
 .text.mp_obj_is_subclass
                0x0000000000013a9c       0xc4 build/py/objtype.o
 .text.mp_builtin_issubclass
                0x0000000000013b60       0x34 build/py/objtype.o
 .text.mp_builtin_isinstance
                0x0000000000013b94       0x24 build/py/objtype.o
 .text.mp_obj_cast_to_native_base
                0x0000000000013bb8       0x4c build/py/objtype.o
                0x0000000000013bb8                mp_obj_cast_to_native_base
 .text.zip_iternext
                0x0000000000013c04       0x84 build/py/objzip.o
 .text.zip_make_new
                0x0000000000013c88       0x88 build/py/objzip.o
 .text.op_getitem
                0x0000000000013d10       0x44 build/py/opmethods.o
 .text.op_setitem
                0x0000000000013d54       0x50 build/py/opmethods.o
 .text.op_delitem
                0x0000000000013da4       0x44 build/py/opmethods.o
 .text.mp_seq_multiply
                0x0000000000013de8       0x54 build/py/sequence.o
                0x0000000000013de8                mp_seq_multiply
 .text.mp_seq_cmp_bytes
                0x0000000000013e3c       0xcc build/py/sequence.o
                0x0000000000013e3c                mp_seq_cmp_bytes
 .text.mp_seq_cmp_objs
                0x0000000000013f08      0x108 build/py/sequence.o
                0x0000000000013f08                mp_seq_cmp_objs
 .text.mp_seq_index_obj
                0x0000000000014010       0xcc build/py/sequence.o
                0x0000000000014010                mp_seq_index_obj
 .text.mp_seq_count_obj
                0x00000000000140dc       0x6c build/py/sequence.o
                0x00000000000140dc                mp_seq_count_obj
 .text.mp_get_stream
                0x0000000000014148       0x18 build/py/stream.o
 .text.stream_unbuffered_readline
                0x0000000000014160       0xf4 build/py/stream.o
 .text.mp_stream_unbuffered_iter
                0x0000000000014254       0x38 build/py/stream.o
                0x0000000000014254                mp_stream_unbuffered_iter
 .text.mp_binary_set_int
                0x000000000001428c       0x60 build/py/binary.o
                0x000000000001428c                mp_binary_set_int
 .text.unregister_module_from_nlr_jump_callback
                0x00000000000142ec       0x1c build/py/builtinimport.o
 .text.evaluate_relative_import
                0x0000000000014308      0x134 build/py/builtinimport.o
 .text.stat_path
                0x000000000001443c       0x4c build/py/builtinimport.o
 .text.stat_module
                0x0000000000014488       0x50 build/py/builtinimport.o
 .text.do_load  0x00000000000144d8       0xd4 build/py/builtinimport.o
 .text.process_import_at_level.constprop.0
                0x00000000000145ac      0x1cc build/py/builtinimport.o
 .text.mp_builtin___import___default
                0x0000000000014778      0x118 build/py/builtinimport.o
                0x0000000000014778                mp_builtin___import___default
 .text.eval_exec_helper
                0x0000000000014890       0xc4 build/py/builtinevex.o
 .text.mp_builtin_eval
                0x0000000000014954        0x8 build/py/builtinevex.o
 .text.mp_builtin_exec
                0x000000000001495c        0x8 build/py/builtinevex.o
 .text.mp_builtin_globals
                0x0000000000014964        0xc build/py/modbuiltins.o
 .text.mp_builtin_locals
                0x0000000000014970        0xc build/py/modbuiltins.o
 .text.mp_builtin___build_class__
                0x000000000001497c       0xb4 build/py/modbuiltins.o
 .text.mp_builtin_abs
                0x0000000000014a30        0xc build/py/modbuiltins.o
 .text.mp_builtin_hash
                0x0000000000014a3c        0xc build/py/modbuiltins.o
 .text.mp_builtin_iter
                0x0000000000014a48        0x8 build/py/modbuiltins.o
 .text.mp_builtin_all
                0x0000000000014a50       0x48 build/py/modbuiltins.o
 .text.mp_builtin_any
                0x0000000000014a98       0x48 build/py/modbuiltins.o
 .text.mp_builtin_bin
                0x0000000000014ae0       0x28 build/py/modbuiltins.o
 .text.mp_builtin_hex
                0x0000000000014b08       0x28 build/py/modbuiltins.o
 .text.mp_builtin_oct
                0x0000000000014b30       0x28 build/py/modbuiltins.o
 .text.mp_builtin_callable
                0x0000000000014b58       0x24 build/py/modbuiltins.o
 .text.mp_builtin_chr
                0x0000000000014b7c       0x38 build/py/modbuiltins.o
 .text.mp_builtin_divmod
                0x0000000000014bb4       0x10 build/py/modbuiltins.o
 .text.mp_builtin_sum
                0x0000000000014bc4       0x64 build/py/modbuiltins.o
 .text.mp_builtin_ord
                0x0000000000014c28       0x3c build/py/modbuiltins.o
 .text.mp_builtin_pow
                0x0000000000014c64       0x2c build/py/modbuiltins.o
 .text.mp_builtin_print
                0x0000000000014c90       0xd8 build/py/modbuiltins.o
 .text.mp_builtin_repr
                0x0000000000014d68       0x44 build/py/modbuiltins.o
 .text.mp_builtin_round
                0x0000000000014dac       0x54 build/py/modbuiltins.o
 .text.mp_builtin_sorted
                0x0000000000014e00       0x60 build/py/modbuiltins.o
 .text.mp_builtin_hasattr
                0x0000000000014e60       0x4c build/py/modbuiltins.o
 .text.mp_builtin_getattr
                0x0000000000014eac       0x78 build/py/modbuiltins.o
 .text.mp_builtin_setattr
                0x0000000000014f24       0x3c build/py/modbuiltins.o
 .text.mp_builtin_next
                0x0000000000014f60       0x24 build/py/modbuiltins.o
 .text.mp_builtin___repl_print__
                0x0000000000014f84       0x54 build/py/modbuiltins.o
 .text.mp_builtin_dir
                0x0000000000014fd8       0xd0 build/py/modbuiltins.o
 .text.mp_execute_bytecode
                0x00000000000150a8     0x119c build/py/vm.o
                0x00000000000150a8                mp_execute_bytecode
 .text.mp_encode_uint
                0x0000000000016244       0x74 build/py/bc.o
                0x0000000000016244                mp_encode_uint
 .text.mp_decode_uint
                0x00000000000162b8       0x24 build/py/bc.o
                0x00000000000162b8                mp_decode_uint
 .text.mp_decode_uint_value
                0x00000000000162dc       0x1c build/py/bc.o
                0x00000000000162dc                mp_decode_uint_value
 .text.mp_decode_uint_skip
                0x00000000000162f8        0xc build/py/bc.o
                0x00000000000162f8                mp_decode_uint_skip
 .text.mp_setup_code_state
                0x0000000000016304      0x50c build/py/bc.o
                0x0000000000016304                mp_setup_code_state
 .text.str_startswith_word
                0x0000000000016810       0x60 build/py/repl.o
 .text.test_qstr
                0x0000000000016870       0x74 build/py/repl.o
 .text.mp_repl_continue_with_input
                0x00000000000168e4      0x274 build/py/repl.o
                0x00000000000168e4                mp_repl_continue_with_input
 .text.mp_repl_autocomplete
                0x0000000000016b58      0x3a0 build/py/repl.o
                0x0000000000016b58                mp_repl_autocomplete
 .text.mp_small_int_mul_overflow
                0x0000000000016ef8       0x64 build/py/smallint.o
                0x0000000000016ef8                mp_small_int_mul_overflow
 .text.mp_small_int_modulo
                0x0000000000016f5c       0x28 build/py/smallint.o
                0x0000000000016f5c                mp_small_int_modulo
 .text.mp_small_int_floor_divide
                0x0000000000016f84       0x28 build/py/smallint.o
                0x0000000000016f84                mp_small_int_floor_divide
 .text.mp_find_frozen_module
                0x0000000000016fac       0xd0 build/py/frozenmod.o
                0x0000000000016fac                mp_find_frozen_module
 .text.startup.main
                0x000000000001707c       0x40 build/main.o
                0x000000000001707c                main
 .text.gc_collect
                0x00000000000170bc       0x3c build/main.o
                0x00000000000170bc                gc_collect
 .text.mp_lexer_new_from_file
                0x00000000000170f8       0x10 build/main.o
                0x00000000000170f8                mp_lexer_new_from_file
 .text.mp_import_stat
                0x0000000000017108        0x8 build/main.o
                0x0000000000017108                mp_import_stat
 .text.nlr_jump_fail
                0x0000000000017110        0x4 build/main.o
                0x0000000000017110                nlr_jump_fail
 .text.mp_hal_stdin_rx_chr
                0x0000000000017114       0x28 build/uart_core.o
                0x0000000000017114                mp_hal_stdin_rx_chr
 .text.mp_hal_stdout_tx_strn
                0x000000000001713c       0x10 build/uart_core.o
                0x000000000001713c                mp_hal_stdout_tx_strn
 .text.strn_print_strn
                0x000000000001714c       0x48 build/shared/libc/printf.o
 .text.printf   0x0000000000017194       0x84 build/shared/libc/printf.o
                0x0000000000017194                printf
 .text.vsnprintf
                0x0000000000017218       0x6c build/shared/libc/printf.o
                0x0000000000017218                vsnprintf
 .text.snprintf
                0x0000000000017284       0x74 build/shared/libc/printf.o
                0x0000000000017284                snprintf
 .text.mp_hal_move_cursor_back
                0x00000000000172f8       0x64 build/shared/readline/readline.o
 .text.readline_init
                0x000000000001735c       0x30 build/shared/readline/readline.o
                0x000000000001735c                readline_init
 .text.readline_push_history
                0x000000000001738c       0x8c build/shared/readline/readline.o
                0x000000000001738c                readline_push_history
 .text.readline_process_char
                0x0000000000017418      0x494 build/shared/readline/readline.o
                0x0000000000017418                readline_process_char
 .text.readline
                0x00000000000178ac       0x20 build/shared/readline/readline.o
                0x00000000000178ac                readline
 .text.parse_compile_execute
                0x00000000000178cc      0x1a4 build/shared/runtime/pyexec.o
 .text.pyexec_friendly_repl
                0x0000000000017a70      0x1dc build/shared/runtime/pyexec.o
                0x0000000000017a70                pyexec_friendly_repl
 .text.mp_hal_stdout_tx_strn_cooked
                0x0000000000017c4c       0x8c build/shared/runtime/stdout_helpers.o
                0x0000000000017c4c                mp_hal_stdout_tx_strn_cooked
 .text.mp_hal_stdout_tx_str
                0x0000000000017cd8       0x28 build/shared/runtime/stdout_helpers.o
                0x0000000000017cd8                mp_hal_stdout_tx_str
 .text          0x0000000000017d00       0xa0 ../../../../build/lib/libc/libc.a(crt1.c.obj)
                0x0000000000017d00                finish_child
                0x0000000000017d6c                term_default
 .text          0x0000000000017da0       0x70 ../../../../build/lib/libc/libc.a(strcmp.c.obj)
                0x0000000000017da0                strcmp
 .text          0x0000000000017e10       0xc4 ../../../../build/lib/libc/libc.a(strncmp.c.obj)
                0x0000000000017e10                strncmp
 .text          0x0000000000017ed4       0x44 ../../../../build/lib/libc/libc.a(strlen.c.obj)
                0x0000000000017ed4                strlen
 .text          0x0000000000017f18      0xa54 ../../../../build/lib/libc/libc.a(memcpy.c.obj)
                0x0000000000017f18                memcpy
 .text          0x000000000001896c      0x358 ../../../../build/lib/libc/libc.a(memset.c.obj)
                0x000000000001896c                memset
 .text          0x0000000000018cc4       0xa0 ../../../../build/lib/libc/libc.a(memcmp.c.obj)
                0x0000000000018cc4                memcmp
 .text          0x0000000000018d64      0x270 ../../../../build/lib/libc/libc.a(memmove.c.obj)
                0x0000000000018d64                memmove
 .text          0x0000000000018fd4       0x4c ../../../../build/lib/libc/libc.a(strchr.c.obj)
                0x0000000000018fd4                strchr
 .text          0x0000000000019020       0x30 ../../../../build/lib/libc/libc.a(write.c.obj)
                0x0000000000019020                write
 .text          0x0000000000019050       0x30 ../../../../build/lib/libc/libc.a(read.c.obj)
                0x0000000000019050                read
 .text          0x0000000000019080       0x14 ../../../../build/lib/libc/libc.a(getpid.c.obj)
                0x0000000000019080                getpid
 .text          0x0000000000019094       0x88 ../../../../build/lib/libc/libc.a(exit.c.obj)
                0x0000000000019094                __funcs_on_exit
                0x0000000000019094                __stdio_exit
                0x0000000000019094                _fini
                0x000000000001909c                __libc_exit_fini
                0x00000000000190fc                exit
 .text          0x000000000001911c       0x14 ../../../../build/lib/libc/libc.a(_Exit.c.obj)
                0x000000000001911c                _Exit
 .text          0x0000000000019130       0x2c ../../../../build/lib/libc/libc.a(waitpid.c.obj)
                0x0000000000019130                waitpid
 .text          0x000000000001915c      0x3a0 ../../../../build/lib/libc/libc.a(sigaction.c.obj)
                0x00000000000192a8                __get_handler_set
                0x00000000000192d4                __restore
                0x0000000000019308                __restore_rt
                0x0000000000019330                __libc_sigaction
                0x0000000000019498                sigaction
                0x0000000000019498                __sigaction
 .text          0x00000000000194fc      0x124 ../../../../build/lib/libc/libc.a(strchrnul.c.obj)
                0x00000000000194fc                __strchrnul
                0x00000000000194fc                strchrnul

.iplt           0x0000000000019620        0x0
 .iplt          0x0000000000019620        0x0 build/py/nlr.o

.rela.dyn       0x0000000000019620        0x0
 .rela.iplt     0x0000000000019620        0x0 build/py/nlr.o
 .rela.head     0x0000000000019620        0x0 build/py/nlr.o
 .rela.rodata   0x0000000000019620        0x0 build/py/nlr.o
                0x000000000001a000                . = ALIGN (0x1000)

.rodata         0x000000000001a000       0x28
 .rodata        0x000000000001a000       0x11 ../../../../build/lib/libc/libc.a(crt1.c.obj)
 *fill*         0x000000000001a011        0x7 
 .rodata        0x000000000001a018       0x10 ../../../../build/lib/libc/libc.a(exit.c.obj)

.rodata.gc_dump_info.str1.1
                0x000000000001a028       0x68
 .rodata.gc_dump_info.str1.1
                0x000000000001a028       0x68 build/py/gc.o

.rodata.qstr_from_strn.str1.1
                0x000000000001a090        0x5
 .rodata.qstr_from_strn.str1.1
                0x000000000001a090        0x5 build/py/qstr.o

.rodata.mp_decompress_rom_string.str1.1
                0x000000000001a095      0x2e4
 .rodata.mp_decompress_rom_string.str1.1
                0x000000000001a095      0x2e4 build/py/qstr.o

.rodata.str1.1  0x000000000001a379      0x751
 .rodata.str1.1
                0x000000000001a379      0x621 build/py/qstr.o
                                        0x671 (size before relaxing)
 .rodata.str1.1
                0x000000000001a99a       0xa5 build/py/lexer.o
                                         0xbc (size before relaxing)
 .rodata.str1.1
                0x000000000001aa3f       0x21 build/py/objdict.o
 .rodata.str1.1
                0x000000000001aa60        0x1 build/py/objstr.o
 .rodata.str1.1
                0x000000000001aa60       0x6a build/build/_frozen_mpy.o

.rodata.mp_qstr_const_hashes
                0x000000000001aaca       0xce
 .rodata.mp_qstr_const_hashes
                0x000000000001aaca       0xce build/py/qstr.o
                0x000000000001aaca                mp_qstr_const_hashes

.rodata.mp_qstr_const_lengths
                0x000000000001ab98       0xce
 .rodata.mp_qstr_const_lengths
                0x000000000001ab98       0xce build/py/qstr.o
                0x000000000001ab98                mp_qstr_const_lengths

.rodata.mp_qstr_const_pool
                0x000000000001ac68      0x6a0
 .rodata.mp_qstr_const_pool
                0x000000000001ac68      0x6a0 build/py/qstr.o
                0x000000000001ac68                mp_qstr_const_pool

.rodata.mp_print_mp_int.str1.1
                0x000000000001b308        0x1
 .rodata.mp_print_mp_int.str1.1
                0x000000000001b308        0x1 build/py/mpprint.o

.rodata.mp_vprintf.str1.1
                0x000000000001b309        0xb
 .rodata.mp_vprintf.str1.1
                0x000000000001b309        0xb build/py/mpprint.o

.rodata.mp_vprintf
                0x000000000001b314       0x2e
 .rodata.mp_vprintf
                0x000000000001b314       0x2e build/py/mpprint.o

.rodata.mp_plat_print
                0x000000000001b348       0x10
 .rodata.mp_plat_print
                0x000000000001b348       0x10 build/py/mpprint.o
                0x000000000001b348                mp_plat_print

.rodata.pad_spaces
                0x000000000001b358       0x11
 .rodata.pad_spaces
                0x000000000001b358       0x11 build/py/mpprint.o

.rodata.pad_zeroes
                0x000000000001b369       0x11
 .rodata.pad_zeroes
                0x000000000001b369       0x11 build/py/mpprint.o

.rodata.attr    0x000000000001b37a       0x80
 .rodata.attr   0x000000000001b37a       0x80 build/py/unicode.o

.rodata.mp_lexer_to_next.str1.1
                0x000000000001b3fa       0x56
 .rodata.mp_lexer_to_next.str1.1
                0x000000000001b3fa       0x56 build/py/lexer.o

.rodata.mp_lexer_to_next
                0x000000000001b450       0x1d
 .rodata.mp_lexer_to_next
                0x000000000001b450       0x1d build/py/lexer.o

.rodata.tok_enc_kind
                0x000000000001b46d       0x2c
 .rodata.tok_enc_kind
                0x000000000001b46d       0x2c build/py/lexer.o

.rodata.tok_kw  0x000000000001b4a0      0x110
 .rodata.tok_kw
                0x000000000001b4a0      0x110 build/py/lexer.o

.rodata.mp_parse.str1.1
                0x000000000001b5b0       0x20
 .rodata.mp_parse.str1.1
                0x000000000001b5b0       0x20 build/py/parse.o

.rodata.rule_act_table
                0x000000000001b5d0       0xa3
 .rodata.rule_act_table
                0x000000000001b5d0       0xa3 build/py/parse.o

.rodata.rule_arg_combined_table
                0x000000000001b674      0x348
 .rodata.rule_arg_combined_table
                0x000000000001b674      0x348 build/py/parse.o

.rodata.rule_arg_offset_table
                0x000000000001b9bc       0xa3
 .rodata.rule_arg_offset_table
                0x000000000001b9bc       0xa3 build/py/parse.o

.rodata.scope_simple_name_table
                0x000000000001ba5f        0x7
 .rodata.scope_simple_name_table
                0x000000000001ba5f        0x7 build/py/scope.o

.rodata.compile_star_expr.str1.1
                0x000000000001ba66        0xc
 .rodata.compile_star_expr.str1.1
                0x000000000001ba66        0xc build/py/compile.o

.rodata.compile_break_cont_stmt.str1.1
                0x000000000001ba72        0x8
 .rodata.compile_break_cont_stmt.str1.1
                0x000000000001ba72        0x8 build/py/compile.o

.rodata.c_assign.str1.1
                0x000000000001ba7a        0x6
 .rodata.c_assign.str1.1
                0x000000000001ba7a        0x6 build/py/compile.o

.rodata.c_assign_tuple.str1.1
                0x000000000001ba80        0x6
 .rodata.c_assign_tuple.str1.1
                0x000000000001ba80        0x6 build/py/compile.o

.rodata.compile_yield_expr.str1.1
                0x000000000001ba86        0x5
 .rodata.compile_yield_expr.str1.1
                0x000000000001ba86        0x5 build/py/compile.o

.rodata.c_del_stmt.str1.1
                0x000000000001ba8b        0xa
 .rodata.c_del_stmt.str1.1
                0x000000000001ba8b        0xa build/py/compile.o

.rodata.compile_trailer_paren_helper.str1.1
                0x000000000001ba95       0x26
 .rodata.compile_trailer_paren_helper.str1.1
                0x000000000001ba95       0x26 build/py/compile.o

.rodata.compile_decorated.str1.1
                0x000000000001babb       0x18
 .rodata.compile_decorated.str1.1
                0x000000000001babb       0x18 build/py/compile.o

.rodata.compile_funcdef_lambdef_param.str1.1
                0x000000000001bad3       0x17
 .rodata.compile_funcdef_lambdef_param.str1.1
                0x000000000001bad3       0x17 build/py/compile.o

.rodata.compile_atom_expr_normal.str1.1
                0x000000000001baea        0xf
 .rodata.compile_atom_expr_normal.str1.1
                0x000000000001baea        0xf build/py/compile.o

.rodata.compile_try_except.str1.1
                0x000000000001baf9        0xa
 .rodata.compile_try_except.str1.1
                0x000000000001baf9        0xa build/py/compile.o

.rodata.compile_global_nonlocal_stmt.str1.1
                0x000000000001bb03       0x26
 .rodata.compile_global_nonlocal_stmt.str1.1
                0x000000000001bb03       0x26 build/py/compile.o

.rodata.compile_scope_func_lambda_param.constprop.0.str1.1
                0x000000000001bb29        0xe
 .rodata.compile_scope_func_lambda_param.constprop.0.str1.1
                0x000000000001bb29        0xe build/py/compile.o

.rodata.compile_function
                0x000000000001bb38      0x1b0
 .rodata.compile_function
                0x000000000001bb38      0x1b0 build/py/compile.o

.rodata.mp_emit_bc_end_pass.str1.1
                0x000000000001bce8        0x4
 .rodata.mp_emit_bc_end_pass.str1.1
                0x000000000001bce8        0x4 build/py/emitbc.o

.rodata.mp_emit_bc_method_table_delete_id_ops
                0x000000000001bcf0       0x10
 .rodata.mp_emit_bc_method_table_delete_id_ops
                0x000000000001bcf0       0x10 build/py/emitbc.o
                0x000000000001bcf0                mp_emit_bc_method_table_delete_id_ops

.rodata.mp_emit_bc_method_table_load_id_ops
                0x000000000001bd00       0x10
 .rodata.mp_emit_bc_method_table_load_id_ops
                0x000000000001bd00       0x10 build/py/emitbc.o
                0x000000000001bd00                mp_emit_bc_method_table_load_id_ops

.rodata.mp_emit_bc_method_table_store_id_ops
                0x000000000001bd10       0x10
 .rodata.mp_emit_bc_method_table_store_id_ops
                0x000000000001bd10       0x10 build/py/emitbc.o
                0x000000000001bd10                mp_emit_bc_method_table_store_id_ops

.rodata.mp_parse_num_integer.str1.1
                0x000000000001bd20       0x1c
 .rodata.mp_parse_num_integer.str1.1
                0x000000000001bd20       0x1c build/py/parsenum.o

.rodata.mp_parse_num_float.str1.1
                0x000000000001bd3c       0x13
 .rodata.mp_parse_num_float.str1.1
                0x000000000001bd3c       0x13 build/py/parsenum.o

.rodata.mp_load_global.str1.1
                0x000000000001bd4f        0xb
 .rodata.mp_load_global.str1.1
                0x000000000001bd4f        0xb build/py/runtime.o

.rodata.mp_load_method.str1.1
                0x000000000001bd5a        0x8
 .rodata.mp_load_method.str1.1
                0x000000000001bd5a        0x8 build/py/runtime.o

.rodata.mp_import_from.str1.1
                0x000000000001bd62        0x6
 .rodata.mp_import_from.str1.1
                0x000000000001bd62        0x6 build/py/runtime.o

.rodata.m_malloc_fail.str1.1
                0x000000000001bd68       0x18
 .rodata.m_malloc_fail.str1.1
                0x000000000001bd68       0x18 build/py/runtime.o

.rodata.mp_unary_op.str1.1
                0x000000000001bd80       0x17
 .rodata.mp_unary_op.str1.1
                0x000000000001bd80       0x17 build/py/runtime.o

.rodata.mp_unary_op
                0x000000000001bd98        0x9
 .rodata.mp_unary_op
                0x000000000001bd98        0x9 build/py/runtime.o

.rodata.mp_call_function_n_kw.str1.1
                0x000000000001bda1        0x5
 .rodata.mp_call_function_n_kw.str1.1
                0x000000000001bda1        0x5 build/py/runtime.o

.rodata.mp_make_raise_obj.str1.1
                0x000000000001bda6       0x15
 .rodata.mp_make_raise_obj.str1.1
                0x000000000001bda6       0x15 build/py/runtime.o

.rodata.mp_resume.str1.1
                0x000000000001bdbb        0xa
 .rodata.mp_resume.str1.1
                0x000000000001bdbb        0xa build/py/runtime.o

.rodata.mp_getiter.str1.1
                0x000000000001bdc5        0xc
 .rodata.mp_getiter.str1.1
                0x000000000001bdc5        0xc build/py/runtime.o

.rodata.mp_iternext_allow_raise.str1.1
                0x000000000001bdd1        0xd
 .rodata.mp_iternext_allow_raise.str1.1
                0x000000000001bdd1        0xd build/py/runtime.o

.rodata.mp_unpack_sequence.str1.1
                0x000000000001bdde        0xd
 .rodata.mp_unpack_sequence.str1.1
                0x000000000001bdde        0xd build/py/runtime.o

.rodata.mp_binary_op.str1.1
                0x000000000001bdeb       0x28
 .rodata.mp_binary_op.str1.1
                0x000000000001bdeb       0x28 build/py/runtime.o

.rodata.mp_binary_op
                0x000000000001be14       0x48
 .rodata.mp_binary_op
                0x000000000001be14       0x48 build/py/runtime.o

.rodata.mp_raise_TypeError_int_conversion.str1.1
                0x000000000001be5c        0x6
 .rodata.mp_raise_TypeError_int_conversion.str1.1
                0x000000000001be5c        0x6 build/py/runtime.o

.rodata.mp_module___main__
                0x000000000001be68       0x10
 .rodata.mp_module___main__
                0x000000000001be68       0x10 build/py/runtime.o
                0x000000000001be68                mp_module___main__

.rodata.mp_arg_error_terse_mismatch.str1.1
                0x000000000001be78       0x15
 .rodata.mp_arg_error_terse_mismatch.str1.1
                0x000000000001be78       0x15 build/py/argcheck.o

.rodata.hash_allocation_sizes
                0x000000000001be8e       0x44
 .rodata.hash_allocation_sizes
                0x000000000001be8e       0x44 build/py/map.o

.rodata.mp_obj_print_helper.str1.1
                0x000000000001bed2        0x5
 .rodata.mp_obj_print_helper.str1.1
                0x000000000001bed2        0x5 build/py/obj.o

.rodata.mp_obj_print_exception.str1.1
                0x000000000001bed7       0x39
 .rodata.mp_obj_print_exception.str1.1
                0x000000000001bed7       0x39 build/py/obj.o
                                         0x3b (size before relaxing)

.rodata.mp_obj_get_array.str1.1
                0x000000000001bf10        0xb
 .rodata.mp_obj_get_array.str1.1
                0x000000000001bf10        0xb build/py/obj.o

.rodata.mp_get_index.str1.1
                0x000000000001bf1b       0x13
 .rodata.mp_get_index.str1.1
                0x000000000001bf1b       0x13 build/py/obj.o

.rodata.mp_obj_len.str1.1
                0x000000000001bf2e        0x8
 .rodata.mp_obj_len.str1.1
                0x000000000001bf2e        0x8 build/py/obj.o

.rodata.mp_obj_subscr.str1.1
                0x000000000001bf36       0x26
 .rodata.mp_obj_subscr.str1.1
                0x000000000001bf36       0x26 build/py/obj.o

.rodata.mp_get_buffer_raise.str1.1
                0x000000000001bf5c        0xe
 .rodata.mp_get_buffer_raise.str1.1
                0x000000000001bf5c        0xe build/py/obj.o

.rodata.types.0
                0x000000000001bf70       0x80
 .rodata.types.0
                0x000000000001bf70       0x80 build/py/obj.o

.rodata.bool_print.str1.1
                0x000000000001bff0        0xb
 .rodata.bool_print.str1.1
                0x000000000001bff0        0xb build/py/objbool.o

.rodata.mp_type_bool
                0x000000000001c000       0x38
 .rodata.mp_type_bool
                0x000000000001c000       0x38 build/py/objbool.o
                0x000000000001c000                mp_type_bool

.rodata.mp_type_bound_meth
                0x000000000001c038       0x20
 .rodata.mp_type_bound_meth
                0x000000000001c038       0x20 build/py/objboundmeth.o

.rodata.mp_type_cell
                0x000000000001c058       0x18
 .rodata.mp_type_cell
                0x000000000001c058       0x18 build/py/objcell.o

.rodata.mp_type_closure
                0x000000000001c070       0x20
 .rodata.mp_type_closure
                0x000000000001c070       0x20 build/py/objclosure.o
                0x000000000001c070                mp_type_closure

.rodata.dict_view_print.str1.1
                0x000000000001c090        0x9
 .rodata.dict_view_print.str1.1
                0x000000000001c090        0x9 build/py/objdict.o

.rodata.dict_print.str1.1
                0x000000000001c099        0x7
 .rodata.dict_print.str1.1
                0x000000000001c099        0x7 build/py/objdict.o

.rodata.dict_popitem.str1.1
                0x000000000001c0a0       0x19
 .rodata.dict_popitem.str1.1
                0x000000000001c0a0       0x19 build/py/objdict.o

.rodata.dict_update.str1.1
                0x000000000001c0b9       0x11
 .rodata.dict_update.str1.1
                0x000000000001c0b9       0x11 build/py/objdict.o

.rodata.dict_clear_obj
                0x000000000001c0d0       0x10
 .rodata.dict_clear_obj
                0x000000000001c0d0       0x10 build/py/objdict.o

.rodata.dict_copy_obj
                0x000000000001c0e0       0x10
 .rodata.dict_copy_obj
                0x000000000001c0e0       0x10 build/py/objdict.o

.rodata.dict_get_obj
                0x000000000001c0f0       0x18
 .rodata.dict_get_obj
                0x000000000001c0f0       0x18 build/py/objdict.o

.rodata.dict_items_obj
                0x000000000001c108       0x10
 .rodata.dict_items_obj
                0x000000000001c108       0x10 build/py/objdict.o

.rodata.dict_keys_obj
                0x000000000001c118       0x10
 .rodata.dict_keys_obj
                0x000000000001c118       0x10 build/py/objdict.o

.rodata.dict_locals_dict
                0x000000000001c128       0x20
 .rodata.dict_locals_dict
                0x000000000001c128       0x20 build/py/objdict.o

.rodata.dict_locals_dict_table
                0x000000000001c148       0xd0
 .rodata.dict_locals_dict_table
                0x000000000001c148       0xd0 build/py/objdict.o

.rodata.dict_pop_obj
                0x000000000001c218       0x18
 .rodata.dict_pop_obj
                0x000000000001c218       0x18 build/py/objdict.o

.rodata.dict_popitem_obj
                0x000000000001c230       0x10
 .rodata.dict_popitem_obj
                0x000000000001c230       0x10 build/py/objdict.o

.rodata.dict_setdefault_obj
                0x000000000001c240       0x18
 .rodata.dict_setdefault_obj
                0x000000000001c240       0x18 build/py/objdict.o

.rodata.dict_update_obj
                0x000000000001c258       0x18
 .rodata.dict_update_obj
                0x000000000001c258       0x18 build/py/objdict.o

.rodata.dict_values_obj
                0x000000000001c270       0x10
 .rodata.dict_values_obj
                0x000000000001c270       0x10 build/py/objdict.o

.rodata.mp_dict_view_names
                0x000000000001c280       0x18
 .rodata.mp_dict_view_names
                0x000000000001c280       0x18 build/py/objdict.o

.rodata.mp_type_dict
                0x000000000001c298       0x50
 .rodata.mp_type_dict
                0x000000000001c298       0x50 build/py/objdict.o
                0x000000000001c298                mp_type_dict

.rodata.mp_type_dict_view
                0x000000000001c2e8       0x38
 .rodata.mp_type_dict_view
                0x000000000001c2e8       0x38 build/py/objdict.o

.rodata.mp_type_dict_view_it
                0x000000000001c320       0x20
 .rodata.mp_type_dict_view_it
                0x000000000001c320       0x20 build/py/objdict.o

.rodata.mp_obj_exception_print.str1.1
                0x000000000001c340        0x3
 .rodata.mp_obj_exception_print.str1.1
                0x000000000001c340        0x3 build/py/objexcept.o
                                          0x4 (size before relaxing)

.rodata.mp_type_ArithmeticError
                0x000000000001c348       0x38
 .rodata.mp_type_ArithmeticError
                0x000000000001c348       0x38 build/py/objexcept.o
                0x000000000001c348                mp_type_ArithmeticError

.rodata.mp_type_AssertionError
                0x000000000001c380       0x38
 .rodata.mp_type_AssertionError
                0x000000000001c380       0x38 build/py/objexcept.o
                0x000000000001c380                mp_type_AssertionError

.rodata.mp_type_AttributeError
                0x000000000001c3b8       0x38
 .rodata.mp_type_AttributeError
                0x000000000001c3b8       0x38 build/py/objexcept.o
                0x000000000001c3b8                mp_type_AttributeError

.rodata.mp_type_BaseException
                0x000000000001c3f0       0x30
 .rodata.mp_type_BaseException
                0x000000000001c3f0       0x30 build/py/objexcept.o
                0x000000000001c3f0                mp_type_BaseException

.rodata.mp_type_EOFError
                0x000000000001c420       0x38
 .rodata.mp_type_EOFError
                0x000000000001c420       0x38 build/py/objexcept.o
                0x000000000001c420                mp_type_EOFError

.rodata.mp_type_Exception
                0x000000000001c458       0x38
 .rodata.mp_type_Exception
                0x000000000001c458       0x38 build/py/objexcept.o
                0x000000000001c458                mp_type_Exception

.rodata.mp_type_GeneratorExit
                0x000000000001c490       0x38
 .rodata.mp_type_GeneratorExit
                0x000000000001c490       0x38 build/py/objexcept.o
                0x000000000001c490                mp_type_GeneratorExit

.rodata.mp_type_ImportError
                0x000000000001c4c8       0x38
 .rodata.mp_type_ImportError
                0x000000000001c4c8       0x38 build/py/objexcept.o
                0x000000000001c4c8                mp_type_ImportError

.rodata.mp_type_IndentationError
                0x000000000001c500       0x38
 .rodata.mp_type_IndentationError
                0x000000000001c500       0x38 build/py/objexcept.o
                0x000000000001c500                mp_type_IndentationError

.rodata.mp_type_IndexError
                0x000000000001c538       0x38
 .rodata.mp_type_IndexError
                0x000000000001c538       0x38 build/py/objexcept.o
                0x000000000001c538                mp_type_IndexError

.rodata.mp_type_KeyError
                0x000000000001c570       0x38
 .rodata.mp_type_KeyError
                0x000000000001c570       0x38 build/py/objexcept.o
                0x000000000001c570                mp_type_KeyError

.rodata.mp_type_KeyboardInterrupt
                0x000000000001c5a8       0x38
 .rodata.mp_type_KeyboardInterrupt
                0x000000000001c5a8       0x38 build/py/objexcept.o
                0x000000000001c5a8                mp_type_KeyboardInterrupt

.rodata.mp_type_LookupError
                0x000000000001c5e0       0x38
 .rodata.mp_type_LookupError
                0x000000000001c5e0       0x38 build/py/objexcept.o
                0x000000000001c5e0                mp_type_LookupError

.rodata.mp_type_MemoryError
                0x000000000001c618       0x38
 .rodata.mp_type_MemoryError
                0x000000000001c618       0x38 build/py/objexcept.o
                0x000000000001c618                mp_type_MemoryError

.rodata.mp_type_NameError
                0x000000000001c650       0x38
 .rodata.mp_type_NameError
                0x000000000001c650       0x38 build/py/objexcept.o
                0x000000000001c650                mp_type_NameError

.rodata.mp_type_NotImplementedError
                0x000000000001c688       0x38
 .rodata.mp_type_NotImplementedError
                0x000000000001c688       0x38 build/py/objexcept.o
                0x000000000001c688                mp_type_NotImplementedError

.rodata.mp_type_OSError
                0x000000000001c6c0       0x38
 .rodata.mp_type_OSError
                0x000000000001c6c0       0x38 build/py/objexcept.o
                0x000000000001c6c0                mp_type_OSError

.rodata.mp_type_OverflowError
                0x000000000001c6f8       0x38
 .rodata.mp_type_OverflowError
                0x000000000001c6f8       0x38 build/py/objexcept.o
                0x000000000001c6f8                mp_type_OverflowError

.rodata.mp_type_RuntimeError
                0x000000000001c730       0x38
 .rodata.mp_type_RuntimeError
                0x000000000001c730       0x38 build/py/objexcept.o
                0x000000000001c730                mp_type_RuntimeError

.rodata.mp_type_StopIteration
                0x000000000001c768       0x38
 .rodata.mp_type_StopIteration
                0x000000000001c768       0x38 build/py/objexcept.o
                0x000000000001c768                mp_type_StopIteration

.rodata.mp_type_SyntaxError
                0x000000000001c7a0       0x38
 .rodata.mp_type_SyntaxError
                0x000000000001c7a0       0x38 build/py/objexcept.o
                0x000000000001c7a0                mp_type_SyntaxError

.rodata.mp_type_SystemExit
                0x000000000001c7d8       0x38
 .rodata.mp_type_SystemExit
                0x000000000001c7d8       0x38 build/py/objexcept.o
                0x000000000001c7d8                mp_type_SystemExit

.rodata.mp_type_TypeError
                0x000000000001c810       0x38
 .rodata.mp_type_TypeError
                0x000000000001c810       0x38 build/py/objexcept.o
                0x000000000001c810                mp_type_TypeError

.rodata.mp_type_ValueError
                0x000000000001c848       0x38
 .rodata.mp_type_ValueError
                0x000000000001c848       0x38 build/py/objexcept.o
                0x000000000001c848                mp_type_ValueError

.rodata.mp_type_ZeroDivisionError
                0x000000000001c880       0x38
 .rodata.mp_type_ZeroDivisionError
                0x000000000001c880       0x38 build/py/objexcept.o
                0x000000000001c880                mp_type_ZeroDivisionError

.rodata.mp_type_fun_bc
                0x000000000001c8b8       0x20
 .rodata.mp_type_fun_bc
                0x000000000001c8b8       0x20 build/py/objfun.o
                0x000000000001c8b8                mp_type_fun_bc

.rodata.mp_type_fun_builtin_0
                0x000000000001c8d8       0x20
 .rodata.mp_type_fun_builtin_0
                0x000000000001c8d8       0x20 build/py/objfun.o
                0x000000000001c8d8                mp_type_fun_builtin_0

.rodata.mp_type_fun_builtin_1
                0x000000000001c8f8       0x20
 .rodata.mp_type_fun_builtin_1
                0x000000000001c8f8       0x20 build/py/objfun.o
                0x000000000001c8f8                mp_type_fun_builtin_1

.rodata.mp_type_fun_builtin_2
                0x000000000001c918       0x20
 .rodata.mp_type_fun_builtin_2
                0x000000000001c918       0x20 build/py/objfun.o
                0x000000000001c918                mp_type_fun_builtin_2

.rodata.mp_type_fun_builtin_3
                0x000000000001c938       0x20
 .rodata.mp_type_fun_builtin_3
                0x000000000001c938       0x20 build/py/objfun.o
                0x000000000001c938                mp_type_fun_builtin_3

.rodata.mp_type_fun_builtin_var
                0x000000000001c958       0x20
 .rodata.mp_type_fun_builtin_var
                0x000000000001c958       0x20 build/py/objfun.o
                0x000000000001c958                mp_type_fun_builtin_var

.rodata.gen_instance_print.str1.1
                0x000000000001c978       0x1e
 .rodata.gen_instance_print.str1.1
                0x000000000001c978       0x1e build/py/objgenerator.o

.rodata.mp_obj_gen_resume.str1.1
                0x000000000001c996       0x3c
 .rodata.mp_obj_gen_resume.str1.1
                0x000000000001c996       0x3c build/py/objgenerator.o

.rodata.gen_instance_close.str1.1
                0x000000000001c9d2        0xb
 .rodata.gen_instance_close.str1.1
                0x000000000001c9d2        0xb build/py/objgenerator.o

.rodata.gen_instance_close_obj
                0x000000000001c9e0       0x10
 .rodata.gen_instance_close_obj
                0x000000000001c9e0       0x10 build/py/objgenerator.o

.rodata.gen_instance_locals_dict
                0x000000000001c9f0       0x20
 .rodata.gen_instance_locals_dict
                0x000000000001c9f0       0x20 build/py/objgenerator.o

.rodata.gen_instance_locals_dict_table
                0x000000000001ca10       0x30
 .rodata.gen_instance_locals_dict_table
                0x000000000001ca10       0x30 build/py/objgenerator.o

.rodata.gen_instance_send_obj
                0x000000000001ca40       0x10
 .rodata.gen_instance_send_obj
                0x000000000001ca40       0x10 build/py/objgenerator.o

.rodata.gen_instance_throw_obj
                0x000000000001ca50       0x18
 .rodata.gen_instance_throw_obj
                0x000000000001ca50       0x18 build/py/objgenerator.o

.rodata.mp_const_GeneratorExit_obj
                0x000000000001ca68       0x20
 .rodata.mp_const_GeneratorExit_obj
                0x000000000001ca68       0x20 build/py/objgenerator.o
                0x000000000001ca68                mp_const_GeneratorExit_obj

.rodata.mp_type_gen_instance
                0x000000000001ca88       0x30
 .rodata.mp_type_gen_instance
                0x000000000001ca88       0x30 build/py/objgenerator.o
                0x000000000001ca88                mp_type_gen_instance

.rodata.mp_type_gen_wrap
                0x000000000001cab8       0x20
 .rodata.mp_type_gen_wrap
                0x000000000001cab8       0x20 build/py/objgenerator.o
                0x000000000001cab8                mp_type_gen_wrap

.rodata.mp_type_it
                0x000000000001cad8       0x20
 .rodata.mp_type_it
                0x000000000001cad8       0x20 build/py/objgetitemiter.o

.rodata.mp_obj_new_int_from_str_len.str1.1
                0x000000000001caf8        0xc
 .rodata.mp_obj_new_int_from_str_len.str1.1
                0x000000000001caf8        0xc build/py/objint.o

.rodata.mp_obj_new_int_from_ll.str1.1
                0x000000000001cb04        0x9
 .rodata.mp_obj_new_int_from_ll.str1.1
                0x000000000001cb04        0x9 build/py/objint.o

.rodata.int_from_bytes_fun_obj
                0x000000000001cb10       0x18
 .rodata.int_from_bytes_fun_obj
                0x000000000001cb10       0x18 build/py/objint.o

.rodata.int_from_bytes_obj
                0x000000000001cb28       0x10
 .rodata.int_from_bytes_obj
                0x000000000001cb28       0x10 build/py/objint.o

.rodata.int_locals_dict
                0x000000000001cb38       0x20
 .rodata.int_locals_dict
                0x000000000001cb38       0x20 build/py/objint.o

.rodata.int_locals_dict_table
                0x000000000001cb58       0x20
 .rodata.int_locals_dict_table
                0x000000000001cb58       0x20 build/py/objint.o

.rodata.int_to_bytes_obj
                0x000000000001cb78       0x18
 .rodata.int_to_bytes_obj
                0x000000000001cb78       0x18 build/py/objint.o

.rodata.log_base2_floor
                0x000000000001cb90       0x10
 .rodata.log_base2_floor
                0x000000000001cb90       0x10 build/py/objint.o

.rodata.mp_type_int
                0x000000000001cba0       0x40
 .rodata.mp_type_int
                0x000000000001cba0       0x40 build/py/objint.o
                0x000000000001cba0                mp_type_int

.rodata.list_pop.str1.1
                0x000000000001cbe0        0x8
 .rodata.list_pop.str1.1
                0x000000000001cbe0        0x8 build/py/objlist.o

.rodata.list_print.str1.1
                0x000000000001cbe8        0x7
 .rodata.list_print.str1.1
                0x000000000001cbe8        0x7 build/py/objlist.o

.rodata.allowed_args.0
                0x000000000001cbf0       0x40
 .rodata.allowed_args.0
                0x000000000001cbf0       0x20 build/py/objlist.o
 .rodata.allowed_args.0
                0x000000000001cc10       0x20 build/py/modbuiltins.o

.rodata.list_append_obj
                0x000000000001cc30       0x10
 .rodata.list_append_obj
                0x000000000001cc30       0x10 build/py/objlist.o

.rodata.list_clear_obj
                0x000000000001cc40       0x10
 .rodata.list_clear_obj
                0x000000000001cc40       0x10 build/py/objlist.o

.rodata.list_copy_obj
                0x000000000001cc50       0x10
 .rodata.list_copy_obj
                0x000000000001cc50       0x10 build/py/objlist.o

.rodata.list_count_obj
                0x000000000001cc60       0x10
 .rodata.list_count_obj
                0x000000000001cc60       0x10 build/py/objlist.o

.rodata.list_extend_obj
                0x000000000001cc70       0x10
 .rodata.list_extend_obj
                0x000000000001cc70       0x10 build/py/objlist.o

.rodata.list_index_obj
                0x000000000001cc80       0x18
 .rodata.list_index_obj
                0x000000000001cc80       0x18 build/py/objlist.o

.rodata.list_insert_obj
                0x000000000001cc98       0x10
 .rodata.list_insert_obj
                0x000000000001cc98       0x10 build/py/objlist.o

.rodata.list_locals_dict
                0x000000000001cca8       0x20
 .rodata.list_locals_dict
                0x000000000001cca8       0x20 build/py/objlist.o

.rodata.list_locals_dict_table
                0x000000000001ccc8       0xb0
 .rodata.list_locals_dict_table
                0x000000000001ccc8       0xb0 build/py/objlist.o

.rodata.list_pop_obj
                0x000000000001cd78       0x18
 .rodata.list_pop_obj
                0x000000000001cd78       0x18 build/py/objlist.o

.rodata.list_remove_obj
                0x000000000001cd90       0x10
 .rodata.list_remove_obj
                0x000000000001cd90       0x10 build/py/objlist.o

.rodata.list_reverse_obj
                0x000000000001cda0       0x10
 .rodata.list_reverse_obj
                0x000000000001cda0       0x10 build/py/objlist.o

.rodata.list_sort_obj
                0x000000000001cdb0       0x18
 .rodata.list_sort_obj
                0x000000000001cdb0       0x18 build/py/objlist.o

.rodata.mp_type_list
                0x000000000001cdc8       0x50
 .rodata.mp_type_list
                0x000000000001cdc8       0x50 build/py/objlist.o
                0x000000000001cdc8                mp_type_list

.rodata.mp_type_map
                0x000000000001ce18       0x28
 .rodata.mp_type_map
                0x000000000001ce18       0x28 build/py/objmap.o
                0x000000000001ce18                mp_type_map

.rodata.module_print.str1.1
                0x000000000001ce40        0xe
 .rodata.module_print.str1.1
                0x000000000001ce40        0xe build/py/objmodule.o
                                          0xf (size before relaxing)

.rodata.mp_builtin_extensible_module_map
                0x000000000001ce50       0x18
 .rodata.mp_builtin_extensible_module_map
                0x000000000001ce50       0x18 build/py/objmodule.o
                0x000000000001ce50                mp_builtin_extensible_module_map

.rodata.mp_builtin_extensible_module_table
                0x000000000001ce68        0x0
 .rodata.mp_builtin_extensible_module_table
                0x000000000001ce68        0x0 build/py/objmodule.o

.rodata.mp_builtin_module_map
                0x000000000001ce68       0x18
 .rodata.mp_builtin_module_map
                0x000000000001ce68       0x18 build/py/objmodule.o
                0x000000000001ce68                mp_builtin_module_map

.rodata.mp_builtin_module_table
                0x000000000001ce80       0x20
 .rodata.mp_builtin_module_table
                0x000000000001ce80       0x20 build/py/objmodule.o

.rodata.mp_type_module
                0x000000000001cea0       0x28
 .rodata.mp_type_module
                0x000000000001cea0       0x28 build/py/objmodule.o
                0x000000000001cea0                mp_type_module

.rodata.mp_type_object
                0x000000000001cec8       0x20
 .rodata.mp_type_object
                0x000000000001cec8       0x20 build/py/objobject.o
                0x000000000001cec8                mp_type_object

.rodata.mp_type_polymorph_iter
                0x000000000001cee8       0x20
 .rodata.mp_type_polymorph_iter
                0x000000000001cee8       0x20 build/py/objpolyiter.o
                0x000000000001cee8                mp_type_polymorph_iter

.rodata.none_print.str1.1
                0x000000000001cf08        0x5
 .rodata.none_print.str1.1
                0x000000000001cf08        0x5 build/py/objnone.o

.rodata.mp_type_NoneType
                0x000000000001cf10       0x20
 .rodata.mp_type_NoneType
                0x000000000001cf10       0x20 build/py/objnone.o
                0x000000000001cf10                mp_type_NoneType

.rodata.range_print.str1.1
                0x000000000001cf30       0x16
 .rodata.range_print.str1.1
                0x000000000001cf30       0x16 build/py/objrange.o
                                         0x18 (size before relaxing)

.rodata.range_make_new.str1.1
                0x000000000001cf46        0x7
 .rodata.range_make_new.str1.1
                0x000000000001cf46        0x7 build/py/objrange.o

.rodata.mp_type_range
                0x000000000001cf50       0x40
 .rodata.mp_type_range
                0x000000000001cf50       0x40 build/py/objrange.o
                0x000000000001cf50                mp_type_range

.rodata.mp_type_range_it
                0x000000000001cf90       0x20
 .rodata.mp_type_range_it
                0x000000000001cf90       0x20 build/py/objrange.o

.rodata.singleton_print.str1.1
                0x000000000001cfb0        0x3
 .rodata.singleton_print.str1.1
                0x000000000001cfb0        0x3 build/py/objsingleton.o

.rodata.mp_const_ellipsis_obj
                0x000000000001cfb8       0x10
 .rodata.mp_const_ellipsis_obj
                0x000000000001cfb8       0x10 build/py/objsingleton.o
                0x000000000001cfb8                mp_const_ellipsis_obj

.rodata.mp_type_singleton
                0x000000000001cfc8       0x20
 .rodata.mp_type_singleton
                0x000000000001cfc8       0x20 build/py/objsingleton.o
                0x000000000001cfc8                mp_type_singleton

.rodata.terse_str_format_value_error.str1.1
                0x000000000001cfe8       0x10
 .rodata.terse_str_format_value_error.str1.1
                0x000000000001cfe8       0x10 build/py/objstr.o

.rodata.str_check_arg_type.str1.1
                0x000000000001cff8       0x13
 .rodata.str_check_arg_type.str1.1
                0x000000000001cff8       0x13 build/py/objstr.o

.rodata.str_join.str1.1
                0x000000000001d00b       0x1f
 .rodata.str_join.str1.1
                0x000000000001d00b       0x1f build/py/objstr.o

.rodata.mp_str_print_quoted.str1.1
                0x000000000001d02a       0x17
 .rodata.mp_str_print_quoted.str1.1
                0x000000000001d02a       0x17 build/py/objstr.o
                                         0x1a (size before relaxing)

.rodata.str_print.str1.1
                0x000000000001d041        0x2
 .rodata.str_print.str1.1
                0x000000000001d041        0x2 build/py/objstr.o

.rodata.str_finder.str1.1
                0x000000000001d043        0xd
 .rodata.str_finder.str1.1
                0x000000000001d043        0xd build/py/objstr.o

.rodata.bytes_make_new.str1.1
                0x000000000001d050        0x6
 .rodata.bytes_make_new.str1.1
                0x000000000001d050        0x6 build/py/objstr.o

.rodata.mp_obj_str_split.str1.1
                0x000000000001d056        0xc
 .rodata.mp_obj_str_split.str1.1
                0x000000000001d056        0xc build/py/objstr.o

.rodata.str_rsplit.str1.1
                0x000000000001d062        0xf
 .rodata.str_rsplit.str1.1
                0x000000000001d062        0xf build/py/objstr.o

.rodata.str_endswith.str1.1
                0x000000000001d071        0xc
 .rodata.str_endswith.str1.1
                0x000000000001d071        0xc build/py/objstr.o

.rodata.mp_obj_str_format_helper.str1.1
                0x000000000001d07d       0x21
 .rodata.mp_obj_str_format_helper.str1.1
                0x000000000001d07d       0x21 build/py/objstr.o

.rodata.mp_obj_str_format_helper
                0x000000000001d0a0       0x1c
 .rodata.mp_obj_str_format_helper
                0x000000000001d0a0       0x1c build/py/objstr.o

.rodata.array_bytearray_str_bytes_locals_table
                0x000000000001d0c0      0x150
 .rodata.array_bytearray_str_bytes_locals_table
                0x000000000001d0c0      0x150 build/py/objstr.o

.rodata.mp_const_empty_bytes_obj
                0x000000000001d210       0x20
 .rodata.mp_const_empty_bytes_obj
                0x000000000001d210       0x20 build/py/objstr.o
                0x000000000001d210                mp_const_empty_bytes_obj

.rodata.mp_obj_str_locals_dict
                0x000000000001d230       0x20
 .rodata.mp_obj_str_locals_dict
                0x000000000001d230       0x20 build/py/objstr.o
                0x000000000001d230                mp_obj_str_locals_dict

.rodata.mp_type_bytes
                0x000000000001d250       0x50
 .rodata.mp_type_bytes
                0x000000000001d250       0x50 build/py/objstr.o
                0x000000000001d250                mp_type_bytes

.rodata.mp_type_str
                0x000000000001d2a0       0x50
 .rodata.mp_type_str
                0x000000000001d2a0       0x50 build/py/objstr.o
                0x000000000001d2a0                mp_type_str

.rodata.str_endswith_obj
                0x000000000001d2f0       0x18
 .rodata.str_endswith_obj
                0x000000000001d2f0       0x18 build/py/objstr.o
                0x000000000001d2f0                str_endswith_obj

.rodata.str_find_obj
                0x000000000001d308       0x18
 .rodata.str_find_obj
                0x000000000001d308       0x18 build/py/objstr.o
                0x000000000001d308                str_find_obj

.rodata.str_format_obj
                0x000000000001d320       0x18
 .rodata.str_format_obj
                0x000000000001d320       0x18 build/py/objstr.o
                0x000000000001d320                str_format_obj

.rodata.str_index_obj
                0x000000000001d338       0x18
 .rodata.str_index_obj
                0x000000000001d338       0x18 build/py/objstr.o
                0x000000000001d338                str_index_obj

.rodata.str_isalpha_obj
                0x000000000001d350       0x10
 .rodata.str_isalpha_obj
                0x000000000001d350       0x10 build/py/objstr.o
                0x000000000001d350                str_isalpha_obj

.rodata.str_isdigit_obj
                0x000000000001d360       0x10
 .rodata.str_isdigit_obj
                0x000000000001d360       0x10 build/py/objstr.o
                0x000000000001d360                str_isdigit_obj

.rodata.str_islower_obj
                0x000000000001d370       0x10
 .rodata.str_islower_obj
                0x000000000001d370       0x10 build/py/objstr.o
                0x000000000001d370                str_islower_obj

.rodata.str_isspace_obj
                0x000000000001d380       0x10
 .rodata.str_isspace_obj
                0x000000000001d380       0x10 build/py/objstr.o
                0x000000000001d380                str_isspace_obj

.rodata.str_isupper_obj
                0x000000000001d390       0x10
 .rodata.str_isupper_obj
                0x000000000001d390       0x10 build/py/objstr.o
                0x000000000001d390                str_isupper_obj

.rodata.str_join_obj
                0x000000000001d3a0       0x10
 .rodata.str_join_obj
                0x000000000001d3a0       0x10 build/py/objstr.o
                0x000000000001d3a0                str_join_obj

.rodata.str_lower_obj
                0x000000000001d3b0       0x10
 .rodata.str_lower_obj
                0x000000000001d3b0       0x10 build/py/objstr.o
                0x000000000001d3b0                str_lower_obj

.rodata.str_lstrip_obj
                0x000000000001d3c0       0x18
 .rodata.str_lstrip_obj
                0x000000000001d3c0       0x18 build/py/objstr.o
                0x000000000001d3c0                str_lstrip_obj

.rodata.str_replace_obj
                0x000000000001d3d8       0x18
 .rodata.str_replace_obj
                0x000000000001d3d8       0x18 build/py/objstr.o
                0x000000000001d3d8                str_replace_obj

.rodata.str_rfind_obj
                0x000000000001d3f0       0x18
 .rodata.str_rfind_obj
                0x000000000001d3f0       0x18 build/py/objstr.o
                0x000000000001d3f0                str_rfind_obj

.rodata.str_rindex_obj
                0x000000000001d408       0x18
 .rodata.str_rindex_obj
                0x000000000001d408       0x18 build/py/objstr.o
                0x000000000001d408                str_rindex_obj

.rodata.str_rsplit_obj
                0x000000000001d420       0x18
 .rodata.str_rsplit_obj
                0x000000000001d420       0x18 build/py/objstr.o
                0x000000000001d420                str_rsplit_obj

.rodata.str_rstrip_obj
                0x000000000001d438       0x18
 .rodata.str_rstrip_obj
                0x000000000001d438       0x18 build/py/objstr.o
                0x000000000001d438                str_rstrip_obj

.rodata.str_split_obj
                0x000000000001d450       0x18
 .rodata.str_split_obj
                0x000000000001d450       0x18 build/py/objstr.o
                0x000000000001d450                str_split_obj

.rodata.str_startswith_obj
                0x000000000001d468       0x18
 .rodata.str_startswith_obj
                0x000000000001d468       0x18 build/py/objstr.o
                0x000000000001d468                str_startswith_obj

.rodata.str_strip_obj
                0x000000000001d480       0x18
 .rodata.str_strip_obj
                0x000000000001d480       0x18 build/py/objstr.o
                0x000000000001d480                str_strip_obj

.rodata.str_upper_obj
                0x000000000001d498       0x10
 .rodata.str_upper_obj
                0x000000000001d498       0x10 build/py/objstr.o
                0x000000000001d498                str_upper_obj

.rodata.whitespace.0
                0x000000000001d4a8        0x7
 .rodata.whitespace.0
                0x000000000001d4a8        0x7 build/py/objstr.o

.rodata.mp_obj_tuple_print.str1.1
                0x000000000001d4af        0x9
 .rodata.mp_obj_tuple_print.str1.1
                0x000000000001d4af        0x9 build/py/objtuple.o

.rodata.mp_const_empty_tuple_obj
                0x000000000001d4b8       0x10
 .rodata.mp_const_empty_tuple_obj
                0x000000000001d4b8       0x10 build/py/objtuple.o
                0x000000000001d4b8                mp_const_empty_tuple_obj

.rodata.mp_type_tuple
                0x000000000001d4c8       0x50
 .rodata.mp_type_tuple
                0x000000000001d4c8       0x50 build/py/objtuple.o
                0x000000000001d4c8                mp_type_tuple

.rodata.tuple_count_obj
                0x000000000001d518       0x10
 .rodata.tuple_count_obj
                0x000000000001d518       0x10 build/py/objtuple.o

.rodata.tuple_index_obj
                0x000000000001d528       0x18
 .rodata.tuple_index_obj
                0x000000000001d528       0x18 build/py/objtuple.o

.rodata.tuple_locals_dict
                0x000000000001d540       0x20
 .rodata.tuple_locals_dict
                0x000000000001d540       0x20 build/py/objtuple.o

.rodata.tuple_locals_dict_table
                0x000000000001d560       0x20
 .rodata.tuple_locals_dict_table
                0x000000000001d560       0x20 build/py/objtuple.o

.rodata.type_call.str1.1
                0x000000000001d580        0xa
 .rodata.type_call.str1.1
                0x000000000001d580        0xa build/py/objtype.o

.rodata.type_print.str1.1
                0x000000000001d58a        0xd
 .rodata.type_print.str1.1
                0x000000000001d58a        0xd build/py/objtype.o

.rodata.super_print.str1.1
                0x000000000001d597        0xe
 .rodata.super_print.str1.1
                0x000000000001d597        0xe build/py/objtype.o

.rodata.instance_print.str1.1
                0x000000000001d5a5       0x12
 .rodata.instance_print.str1.1
                0x000000000001d5a5       0x12 build/py/objtype.o

.rodata.mp_obj_instance_make_new.str1.1
                0x000000000001d5b7       0x11
 .rodata.mp_obj_instance_make_new.str1.1
                0x000000000001d5b7       0x11 build/py/objtype.o

.rodata.mp_obj_instance_call.str1.1
                0x000000000001d5c8        0x5
 .rodata.mp_obj_instance_call.str1.1
                0x000000000001d5c8        0x5 build/py/objtype.o

.rodata.mp_obj_new_type.str1.1
                0x000000000001d5cd       0x29
 .rodata.mp_obj_new_type.str1.1
                0x000000000001d5cd       0x29 build/py/objtype.o

.rodata.type_make_new.str1.1
                0x000000000001d5f6        0xc
 .rodata.type_make_new.str1.1
                0x000000000001d5f6        0xc build/py/objtype.o

.rodata.mp_obj_is_subclass.str1.1
                0x000000000001d602        0xe
 .rodata.mp_obj_is_subclass.str1.1
                0x000000000001d602        0xe build/py/objtype.o

.rodata.mp_builtin_issubclass.str1.1
                0x000000000001d610        0x9
 .rodata.mp_builtin_issubclass.str1.1
                0x000000000001d610        0x9 build/py/objtype.o

.rodata.mp_binary_op_method_name
                0x000000000001d619       0x25
 .rodata.mp_binary_op_method_name
                0x000000000001d619       0x25 build/py/objtype.o
                0x000000000001d619                mp_binary_op_method_name

.rodata.mp_builtin_isinstance_obj
                0x000000000001d640       0x10
 .rodata.mp_builtin_isinstance_obj
                0x000000000001d640       0x10 build/py/objtype.o
                0x000000000001d640                mp_builtin_isinstance_obj

.rodata.mp_builtin_issubclass_obj
                0x000000000001d650       0x10
 .rodata.mp_builtin_issubclass_obj
                0x000000000001d650       0x10 build/py/objtype.o
                0x000000000001d650                mp_builtin_issubclass_obj

.rodata.mp_type_classmethod
                0x000000000001d660       0x20
 .rodata.mp_type_classmethod
                0x000000000001d660       0x20 build/py/objtype.o
                0x000000000001d660                mp_type_classmethod

.rodata.mp_type_staticmethod
                0x000000000001d680       0x20
 .rodata.mp_type_staticmethod
                0x000000000001d680       0x20 build/py/objtype.o
                0x000000000001d680                mp_type_staticmethod

.rodata.mp_type_super
                0x000000000001d6a0       0x30
 .rodata.mp_type_super
                0x000000000001d6a0       0x30 build/py/objtype.o
                0x000000000001d6a0                mp_type_super

.rodata.mp_type_type
                0x000000000001d6d0       0x38
 .rodata.mp_type_type
                0x000000000001d6d0       0x38 build/py/objtype.o
                0x000000000001d6d0                mp_type_type

.rodata.mp_unary_op_method_name
                0x000000000001d708        0xc
 .rodata.mp_unary_op_method_name
                0x000000000001d708        0xc build/py/objtype.o
                0x000000000001d708                mp_unary_op_method_name

.rodata.native_base_init_wrapper_obj
                0x000000000001d718       0x18
 .rodata.native_base_init_wrapper_obj
                0x000000000001d718       0x18 build/py/objtype.o

.rodata.mp_type_zip
                0x000000000001d730       0x28
 .rodata.mp_type_zip
                0x000000000001d730       0x28 build/py/objzip.o
                0x000000000001d730                mp_type_zip

.rodata.mp_op_delitem_obj
                0x000000000001d758       0x10
 .rodata.mp_op_delitem_obj
                0x000000000001d758       0x10 build/py/opmethods.o
                0x000000000001d758                mp_op_delitem_obj

.rodata.mp_op_getitem_obj
                0x000000000001d768       0x10
 .rodata.mp_op_getitem_obj
                0x000000000001d768       0x10 build/py/opmethods.o
                0x000000000001d768                mp_op_getitem_obj

.rodata.mp_op_setitem_obj
                0x000000000001d778       0x10
 .rodata.mp_op_setitem_obj
                0x000000000001d778       0x10 build/py/opmethods.o
                0x000000000001d778                mp_op_setitem_obj

.rodata.mp_seq_index_obj.str1.1
                0x000000000001d788        0x6
 .rodata.mp_seq_index_obj.str1.1
                0x000000000001d788        0x6 build/py/sequence.o

.rodata.evaluate_relative_import.str1.1
                0x000000000001d78e       0x14
 .rodata.evaluate_relative_import.str1.1
                0x000000000001d78e       0x14 build/py/builtinimport.o

.rodata.stat_path.str1.1
                0x000000000001d7a2        0x9
 .rodata.stat_path.str1.1
                0x000000000001d7a2        0x9 build/py/builtinimport.o

.rodata.stat_module.str1.1
                0x000000000001d7ab        0x4
 .rodata.stat_module.str1.1
                0x000000000001d7ab        0x4 build/py/builtinimport.o

.rodata.process_import_at_level.constprop.0.str1.1
                0x000000000001d7af       0x17
 .rodata.process_import_at_level.constprop.0.str1.1
                0x000000000001d7af       0x17 build/py/builtinimport.o

.rodata.mp_builtin___import___obj
                0x000000000001d7c8       0x18
 .rodata.mp_builtin___import___obj
                0x000000000001d7c8       0x18 build/py/builtinimport.o
                0x000000000001d7c8                mp_builtin___import___obj

.rodata.mp_builtin_eval_obj
                0x000000000001d7e0       0x18
 .rodata.mp_builtin_eval_obj
                0x000000000001d7e0       0x18 build/py/builtinevex.o
                0x000000000001d7e0                mp_builtin_eval_obj

.rodata.mp_builtin_exec_obj
                0x000000000001d7f8       0x18
 .rodata.mp_builtin_exec_obj
                0x000000000001d7f8       0x18 build/py/builtinevex.o
                0x000000000001d7f8                mp_builtin_exec_obj

.rodata.mp_builtin_chr.str1.1
                0x000000000001d810       0x10
 .rodata.mp_builtin_chr.str1.1
                0x000000000001d810       0x10 build/py/modbuiltins.o

.rodata.mp_builtin_ord.str1.1
                0x000000000001d820        0x8
 .rodata.mp_builtin_ord.str1.1
                0x000000000001d820        0x8 build/py/modbuiltins.o

.rodata.mp_builtin_pow.str1.1
                0x000000000001d828        0xa
 .rodata.mp_builtin_pow.str1.1
                0x000000000001d828        0xa build/py/modbuiltins.o

.rodata.mp_builtin_sorted.str1.1
                0x000000000001d832        0xd
 .rodata.mp_builtin_sorted.str1.1
                0x000000000001d832        0xd build/py/modbuiltins.o

.rodata.mp_builtin___repl_print__.str1.1
                0x000000000001d83f        0x2
 .rodata.mp_builtin___repl_print__.str1.1
                0x000000000001d83f        0x2 build/py/modbuiltins.o

.rodata.mp_builtin___build_class___obj
                0x000000000001d848       0x18
 .rodata.mp_builtin___build_class___obj
                0x000000000001d848       0x18 build/py/modbuiltins.o
                0x000000000001d848                mp_builtin___build_class___obj

.rodata.mp_builtin___repl_print___obj
                0x000000000001d860       0x10
 .rodata.mp_builtin___repl_print___obj
                0x000000000001d860       0x10 build/py/modbuiltins.o
                0x000000000001d860                mp_builtin___repl_print___obj

.rodata.mp_builtin_abs_obj
                0x000000000001d870       0x10
 .rodata.mp_builtin_abs_obj
                0x000000000001d870       0x10 build/py/modbuiltins.o
                0x000000000001d870                mp_builtin_abs_obj

.rodata.mp_builtin_all_obj
                0x000000000001d880       0x10
 .rodata.mp_builtin_all_obj
                0x000000000001d880       0x10 build/py/modbuiltins.o
                0x000000000001d880                mp_builtin_all_obj

.rodata.mp_builtin_any_obj
                0x000000000001d890       0x10
 .rodata.mp_builtin_any_obj
                0x000000000001d890       0x10 build/py/modbuiltins.o
                0x000000000001d890                mp_builtin_any_obj

.rodata.mp_builtin_bin_obj
                0x000000000001d8a0       0x10
 .rodata.mp_builtin_bin_obj
                0x000000000001d8a0       0x10 build/py/modbuiltins.o
                0x000000000001d8a0                mp_builtin_bin_obj

.rodata.mp_builtin_callable_obj
                0x000000000001d8b0       0x10
 .rodata.mp_builtin_callable_obj
                0x000000000001d8b0       0x10 build/py/modbuiltins.o
                0x000000000001d8b0                mp_builtin_callable_obj

.rodata.mp_builtin_chr_obj
                0x000000000001d8c0       0x10
 .rodata.mp_builtin_chr_obj
                0x000000000001d8c0       0x10 build/py/modbuiltins.o
                0x000000000001d8c0                mp_builtin_chr_obj

.rodata.mp_builtin_dir_obj
                0x000000000001d8d0       0x18
 .rodata.mp_builtin_dir_obj
                0x000000000001d8d0       0x18 build/py/modbuiltins.o
                0x000000000001d8d0                mp_builtin_dir_obj

.rodata.mp_builtin_divmod_obj
                0x000000000001d8e8       0x10
 .rodata.mp_builtin_divmod_obj
                0x000000000001d8e8       0x10 build/py/modbuiltins.o
                0x000000000001d8e8                mp_builtin_divmod_obj

.rodata.mp_builtin_getattr_obj
                0x000000000001d8f8       0x18
 .rodata.mp_builtin_getattr_obj
                0x000000000001d8f8       0x18 build/py/modbuiltins.o
                0x000000000001d8f8                mp_builtin_getattr_obj

.rodata.mp_builtin_globals_obj
                0x000000000001d910       0x10
 .rodata.mp_builtin_globals_obj
                0x000000000001d910       0x10 build/py/modbuiltins.o
                0x000000000001d910                mp_builtin_globals_obj

.rodata.mp_builtin_hasattr_obj
                0x000000000001d920       0x10
 .rodata.mp_builtin_hasattr_obj
                0x000000000001d920       0x10 build/py/modbuiltins.o
                0x000000000001d920                mp_builtin_hasattr_obj

.rodata.mp_builtin_hash_obj
                0x000000000001d930       0x10
 .rodata.mp_builtin_hash_obj
                0x000000000001d930       0x10 build/py/modbuiltins.o
                0x000000000001d930                mp_builtin_hash_obj

.rodata.mp_builtin_hex_obj
                0x000000000001d940       0x10
 .rodata.mp_builtin_hex_obj
                0x000000000001d940       0x10 build/py/modbuiltins.o
                0x000000000001d940                mp_builtin_hex_obj

.rodata.mp_builtin_id_obj
                0x000000000001d950       0x10
 .rodata.mp_builtin_id_obj
                0x000000000001d950       0x10 build/py/modbuiltins.o
                0x000000000001d950                mp_builtin_id_obj

.rodata.mp_builtin_iter_obj
                0x000000000001d960       0x10
 .rodata.mp_builtin_iter_obj
                0x000000000001d960       0x10 build/py/modbuiltins.o
                0x000000000001d960                mp_builtin_iter_obj

.rodata.mp_builtin_len_obj
                0x000000000001d970       0x10
 .rodata.mp_builtin_len_obj
                0x000000000001d970       0x10 build/py/modbuiltins.o
                0x000000000001d970                mp_builtin_len_obj

.rodata.mp_builtin_locals_obj
                0x000000000001d980       0x10
 .rodata.mp_builtin_locals_obj
                0x000000000001d980       0x10 build/py/modbuiltins.o
                0x000000000001d980                mp_builtin_locals_obj

.rodata.mp_builtin_next_obj
                0x000000000001d990       0x10
 .rodata.mp_builtin_next_obj
                0x000000000001d990       0x10 build/py/modbuiltins.o
                0x000000000001d990                mp_builtin_next_obj

.rodata.mp_builtin_oct_obj
                0x000000000001d9a0       0x10
 .rodata.mp_builtin_oct_obj
                0x000000000001d9a0       0x10 build/py/modbuiltins.o
                0x000000000001d9a0                mp_builtin_oct_obj

.rodata.mp_builtin_ord_obj
                0x000000000001d9b0       0x10
 .rodata.mp_builtin_ord_obj
                0x000000000001d9b0       0x10 build/py/modbuiltins.o
                0x000000000001d9b0                mp_builtin_ord_obj

.rodata.mp_builtin_pow_obj
                0x000000000001d9c0       0x18
 .rodata.mp_builtin_pow_obj
                0x000000000001d9c0       0x18 build/py/modbuiltins.o
                0x000000000001d9c0                mp_builtin_pow_obj

.rodata.mp_builtin_print_obj
                0x000000000001d9d8       0x18
 .rodata.mp_builtin_print_obj
                0x000000000001d9d8       0x18 build/py/modbuiltins.o
                0x000000000001d9d8                mp_builtin_print_obj

.rodata.mp_builtin_repr_obj
                0x000000000001d9f0       0x10
 .rodata.mp_builtin_repr_obj
                0x000000000001d9f0       0x10 build/py/modbuiltins.o
                0x000000000001d9f0                mp_builtin_repr_obj

.rodata.mp_builtin_round_obj
                0x000000000001da00       0x18
 .rodata.mp_builtin_round_obj
                0x000000000001da00       0x18 build/py/modbuiltins.o
                0x000000000001da00                mp_builtin_round_obj

.rodata.mp_builtin_setattr_obj
                0x000000000001da18       0x10
 .rodata.mp_builtin_setattr_obj
                0x000000000001da18       0x10 build/py/modbuiltins.o
                0x000000000001da18                mp_builtin_setattr_obj

.rodata.mp_builtin_sorted_obj
                0x000000000001da28       0x18
 .rodata.mp_builtin_sorted_obj
                0x000000000001da28       0x18 build/py/modbuiltins.o
                0x000000000001da28                mp_builtin_sorted_obj

.rodata.mp_builtin_sum_obj
                0x000000000001da40       0x18
 .rodata.mp_builtin_sum_obj
                0x000000000001da40       0x18 build/py/modbuiltins.o
                0x000000000001da40                mp_builtin_sum_obj

.rodata.mp_module_builtins
                0x000000000001da58       0x10
 .rodata.mp_module_builtins
                0x000000000001da58       0x10 build/py/modbuiltins.o
                0x000000000001da58                mp_module_builtins

.rodata.mp_module_builtins_globals
                0x000000000001da68       0x20
 .rodata.mp_module_builtins_globals
                0x000000000001da68       0x20 build/py/modbuiltins.o
                0x000000000001da68                mp_module_builtins_globals

.rodata.mp_module_builtins_globals_table
                0x000000000001da88      0x4c0
 .rodata.mp_module_builtins_globals_table
                0x000000000001da88      0x4c0 build/py/modbuiltins.o

.rodata.mp_execute_bytecode.str1.1
                0x000000000001df48       0x39
 .rodata.mp_execute_bytecode.str1.1
                0x000000000001df48       0x39 build/py/vm.o

.rodata.mp_execute_bytecode
                0x000000000001df84       0xb4
 .rodata.mp_execute_bytecode
                0x000000000001df84       0xb4 build/py/vm.o

.rodata.mp_setup_code_state.str1.1
                0x000000000001e038       0x31
 .rodata.mp_setup_code_state.str1.1
                0x000000000001e038       0x31 build/py/bc.o

.rodata.mp_repl_continue_with_input.str1.1
                0x000000000001e069       0x20
 .rodata.mp_repl_continue_with_input.str1.1
                0x000000000001e069       0x20 build/py/repl.o

.rodata.mp_repl_autocomplete.str1.1
                0x000000000001e089        0x8
 .rodata.mp_repl_autocomplete.str1.1
                0x000000000001e089        0x8 build/py/repl.o

.rodata.import_str.0
                0x000000000001e091        0x8
 .rodata.import_str.0
                0x000000000001e091        0x8 build/py/repl.o

.rodata.mp_hal_move_cursor_back.str1.1
                0x000000000001e099        0xa
 .rodata.mp_hal_move_cursor_back.str1.1
                0x000000000001e099        0xa build/shared/readline/readline.o

.rodata.readline_process_char.str1.1
                0x000000000001e0a3        0xc
 .rodata.readline_process_char.str1.1
                0x000000000001e0a3        0xc build/shared/readline/readline.o

.rodata.parse_compile_execute.str1.1
                0x000000000001e0af        0x2
 .rodata.parse_compile_execute.str1.1
                0x000000000001e0af        0x2 build/shared/runtime/pyexec.o

.rodata.pyexec_raw_repl.str1.1
                0x000000000001e0b1       0x23
 .rodata.pyexec_raw_repl.str1.1
                0x000000000001e0b1       0x23 build/shared/runtime/pyexec.o
                                         0x26 (size before relaxing)

.rodata.pyexec_friendly_repl.str1.1
                0x000000000001e0d4       0x86
 .rodata.pyexec_friendly_repl.str1.1
                0x000000000001e0d4       0x86 build/shared/runtime/pyexec.o
                                         0x8d (size before relaxing)

.rodata.mp_hal_stdout_tx_strn_cooked.str1.1
                0x000000000001e15a        0x3
 .rodata.mp_hal_stdout_tx_strn_cooked.str1.1
                0x000000000001e15a        0x3 build/shared/runtime/stdout_helpers.o

.rodata.const_obj_frozentest_0
                0x000000000001e160       0x20
 .rodata.const_obj_frozentest_0
                0x000000000001e160       0x20 build/build/_frozen_mpy.o

.rodata.const_obj_frozentest_1
                0x000000000001e180       0x20
 .rodata.const_obj_frozentest_1
                0x000000000001e180       0x20 build/build/_frozen_mpy.o

.rodata.const_obj_frozentest_2
                0x000000000001e1a0       0x20
 .rodata.const_obj_frozentest_2
                0x000000000001e1a0       0x20 build/build/_frozen_mpy.o

.rodata.const_obj_table_data_frozentest
                0x000000000001e1c0       0x18
 .rodata.const_obj_table_data_frozentest
                0x000000000001e1c0       0x18 build/build/_frozen_mpy.o

.rodata.const_qstr_table_data_frozentest
                0x000000000001e1d8        0xa
 .rodata.const_qstr_table_data_frozentest
                0x000000000001e1d8        0xa build/build/_frozen_mpy.o

.rodata.frozen_module_frozentest
                0x000000000001e1e8       0x18
 .rodata.frozen_module_frozentest
                0x000000000001e1e8       0x18 build/build/_frozen_mpy.o

.rodata.fun_data_frozentest__lt_module_gt_
                0x000000000001e200       0x46
 .rodata.fun_data_frozentest__lt_module_gt_
                0x000000000001e200       0x46 build/build/_frozen_mpy.o

.rodata.mp_frozen_mpy_content
                0x000000000001e248        0x8
 .rodata.mp_frozen_mpy_content
                0x000000000001e248        0x8 build/build/_frozen_mpy.o
                0x000000000001e248                mp_frozen_mpy_content

.rodata.mp_frozen_names
                0x000000000001e250       0x10
 .rodata.mp_frozen_names
                0x000000000001e250       0x10 build/build/_frozen_mpy.o
                0x000000000001e250                mp_frozen_names

.rodata.mp_qstr_frozen_const_hashes
                0x000000000001e260        0x3
 .rodata.mp_qstr_frozen_const_hashes
                0x000000000001e260        0x3 build/build/_frozen_mpy.o
                0x000000000001e260                mp_qstr_frozen_const_hashes

.rodata.mp_qstr_frozen_const_lengths
                0x000000000001e263        0x3
 .rodata.mp_qstr_frozen_const_lengths
                0x000000000001e263        0x3 build/build/_frozen_mpy.o
                0x000000000001e263                mp_qstr_frozen_const_lengths

.rodata.mp_qstr_frozen_const_pool
                0x000000000001e268       0x48
 .rodata.mp_qstr_frozen_const_pool
                0x000000000001e268       0x48 build/build/_frozen_mpy.o
                0x000000000001e268                mp_qstr_frozen_const_pool

.rodata.raw_code_frozentest__lt_module_gt_
                0x000000000001e2b0       0x18
 .rodata.raw_code_frozentest__lt_module_gt_
                0x000000000001e2b0       0x18 build/build/_frozen_mpy.o
                0x000000000001f000                . = ALIGN (0x1000)

.data           0x000000000001f000        0x4
 *(.data*)
 .data          0x000000000001f000        0x4 ../../../../build/lib/libc/libc.a(crt0.S.obj)
                0x000000000001f000                errno

.igot.plt       0x000000000001f008        0x0
 .igot.plt      0x000000000001f008        0x0 build/py/nlr.o
                0x0000000000020000                . = ALIGN (0x1000)
                0x0000000000020000                __bss_start = .

.sbss
 *(.sbss*)

.bss            0x0000000000020000     0x7000
 *(.bss*)
 .bss.mp_state_ctx
                0x0000000000020000      0x340 build/py/mpstate.o
                0x0000000000020000                mp_state_ctx
 .bss.heap      0x0000000000020340     0x6400 build/main.o
 .bss.stack_top
                0x0000000000026740        0x8 build/main.o
 .bss.rl        0x0000000000026748       0x30 build/shared/readline/readline.o
 .bss.pyexec_mode_kind
                0x0000000000026778        0x4 build/shared/runtime/pyexec.o
                0x0000000000026778                pyexec_mode_kind
 .bss.pyexec_system_exit
                0x000000000002677c        0x4 build/shared/runtime/pyexec.o
                0x000000000002677c                pyexec_system_exit
 .bss           0x0000000000026780        0x8 ../../../../build/lib/libc/libc.a(__environ.c.obj)
                0x0000000000026780                _environ
                0x0000000000026780                __environ
                0x0000000000026780                environ
                0x0000000000026780                ___environ
 .bss           0x0000000000026788        0x8 ../../../../build/lib/libc/libc.a(sigaction.c.obj)
                0x0000000000027000                . = ALIGN (0x1000)
 *fill*         0x0000000000026790      0x870 
                0x0000000000027000                __bss_end = .
                0x0000000000027000                _end = .
LOAD build/py/mpstate.o
LOAD build/py/nlr.o
LOAD build/py/nlrx86.o
LOAD build/py/nlrx64.o
LOAD build/py/nlrthumb.o
LOAD build/py/nlraarch64.o
LOAD build/py/nlrmips.o
LOAD build/py/nlrpowerpc.o
LOAD build/py/nlrxtensa.o
LOAD build/py/nlrsetjmp.o
LOAD build/py/malloc.o
LOAD build/py/gc.o
LOAD build/py/pystack.o
LOAD build/py/qstr.o
LOAD build/py/vstr.o
LOAD build/py/mpprint.o
LOAD build/py/unicode.o
LOAD build/py/mpz.o
LOAD build/py/reader.o
LOAD build/py/lexer.o
LOAD build/py/parse.o
LOAD build/py/scope.o
LOAD build/py/compile.o
LOAD build/py/emitcommon.o
LOAD build/py/emitbc.o
LOAD build/py/asmbase.o
LOAD build/py/asmx64.o
LOAD build/py/emitnx64.o
LOAD build/py/asmx86.o
LOAD build/py/emitnx86.o
LOAD build/py/asmthumb.o
LOAD build/py/emitnthumb.o
LOAD build/py/emitinlinethumb.o
LOAD build/py/asmarm.o
LOAD build/py/emitnarm.o
LOAD build/py/asmxtensa.o
LOAD build/py/emitnxtensa.o
LOAD build/py/emitinlinextensa.o
LOAD build/py/emitnxtensawin.o
LOAD build/py/formatfloat.o
LOAD build/py/parsenumbase.o
LOAD build/py/parsenum.o
LOAD build/py/emitglue.o
LOAD build/py/persistentcode.o
LOAD build/py/runtime.o
LOAD build/py/runtime_utils.o
LOAD build/py/scheduler.o
LOAD build/py/nativeglue.o
LOAD build/py/pairheap.o
LOAD build/py/ringbuf.o
LOAD build/py/stackctrl.o
LOAD build/py/argcheck.o
LOAD build/py/warning.o
LOAD build/py/profile.o
LOAD build/py/map.o
LOAD build/py/obj.o
LOAD build/py/objarray.o
LOAD build/py/objattrtuple.o
LOAD build/py/objbool.o
LOAD build/py/objboundmeth.o
LOAD build/py/objcell.o
LOAD build/py/objclosure.o
LOAD build/py/objcomplex.o
LOAD build/py/objdeque.o
LOAD build/py/objdict.o
LOAD build/py/objenumerate.o
LOAD build/py/objexcept.o
LOAD build/py/objfilter.o
LOAD build/py/objfloat.o
LOAD build/py/objfun.o
LOAD build/py/objgenerator.o
LOAD build/py/objgetitemiter.o
LOAD build/py/objint.o
LOAD build/py/objint_longlong.o
LOAD build/py/objint_mpz.o
LOAD build/py/objlist.o
LOAD build/py/objmap.o
LOAD build/py/objmodule.o
LOAD build/py/objobject.o
LOAD build/py/objpolyiter.o
LOAD build/py/objproperty.o
LOAD build/py/objnone.o
LOAD build/py/objnamedtuple.o
LOAD build/py/objrange.o
LOAD build/py/objreversed.o
LOAD build/py/objset.o
LOAD build/py/objsingleton.o
LOAD build/py/objslice.o
LOAD build/py/objstr.o
LOAD build/py/objstrunicode.o
LOAD build/py/objstringio.o
LOAD build/py/objtuple.o
LOAD build/py/objtype.o
LOAD build/py/objzip.o
LOAD build/py/opmethods.o
LOAD build/py/sequence.o
LOAD build/py/stream.o
LOAD build/py/binary.o
LOAD build/py/builtinimport.o
LOAD build/py/builtinevex.o
LOAD build/py/builtinhelp.o
LOAD build/py/modarray.o
LOAD build/py/modbuiltins.o
LOAD build/py/modcollections.o
LOAD build/py/modgc.o
LOAD build/py/modio.o
LOAD build/py/modmath.o
LOAD build/py/modcmath.o
LOAD build/py/modmicropython.o
LOAD build/py/modstruct.o
LOAD build/py/modsys.o
LOAD build/py/moderrno.o
LOAD build/py/modthread.o
LOAD build/py/vm.o
LOAD build/py/bc.o
LOAD build/py/showbc.o
LOAD build/py/repl.o
LOAD build/py/smallint.o
LOAD build/py/frozenmod.o
LOAD build/main.o
LOAD build/uart_core.o
LOAD build/shared/libc/printf.o
LOAD build/shared/readline/readline.o
LOAD build/shared/runtime/pyexec.o
LOAD build/shared/runtime/stdout_helpers.o
LOAD build/build/_frozen_mpy.o
LOAD ../../../../build/lib/libc/libc.a
OUTPUT(build/firmware.elf elf64-littleaarch64)
LOAD linker stubs

.debug_info     0x0000000000000000    0x60913
 .debug_info    0x0000000000000000      0x7a2 build/py/mpstate.o
 .debug_info    0x00000000000007a2      0x8fe build/py/nlr.o
 .debug_info    0x00000000000010a0      0x83a build/py/nlraarch64.o
 .debug_info    0x00000000000018da      0x36f build/py/malloc.o
 .debug_info    0x0000000000001c49     0x165c build/py/gc.o
 .debug_info    0x00000000000032a5     0x171b build/py/qstr.o
 .debug_info    0x00000000000049c0      0xf51 build/py/vstr.o
 .debug_info    0x0000000000005911      0xf8c build/py/mpprint.o
 .debug_info    0x000000000000689d      0x37c build/py/unicode.o
 .debug_info    0x0000000000006c19      0x2f3 build/py/reader.o
 .debug_info    0x0000000000006f0c     0x26ef build/py/lexer.o
 .debug_info    0x00000000000095fb     0x33d1 build/py/parse.o
 .debug_info    0x000000000000c9cc      0xd0e build/py/scope.o
 .debug_info    0x000000000000d6da     0x9a3c build/py/compile.o
 .debug_info    0x0000000000017116      0xb30 build/py/emitcommon.o
 .debug_info    0x0000000000017c46     0x3ea8 build/py/emitbc.o
 .debug_info    0x000000000001baee      0x172 build/py/parsenumbase.o
 .debug_info    0x000000000001bc60     0x1096 build/py/parsenum.o
 .debug_info    0x000000000001ccf6      0x6cc build/py/emitglue.o
 .debug_info    0x000000000001d3c2     0x5e06 build/py/runtime.o
 .debug_info    0x00000000000231c8      0x843 build/py/scheduler.o
 .debug_info    0x0000000000023a0b      0x6f6 build/py/argcheck.o
 .debug_info    0x0000000000024101      0x903 build/py/map.o
 .debug_info    0x0000000000024a04     0x2529 build/py/obj.o
 .debug_info    0x0000000000026f2d      0xd90 build/py/objbool.o
 .debug_info    0x0000000000027cbd      0xa20 build/py/objboundmeth.o
 .debug_info    0x00000000000286dd      0x7bc build/py/objcell.o
 .debug_info    0x0000000000028e99      0xa73 build/py/objclosure.o
 .debug_info    0x000000000002990c     0x2ee5 build/py/objdict.o
 .debug_info    0x000000000002c7f1     0x223d build/py/objexcept.o
 .debug_info    0x000000000002ea2e     0x1df0 build/py/objfun.o
 .debug_info    0x000000000003081e     0x1ca3 build/py/objgenerator.o
 .debug_info    0x00000000000324c1      0xa35 build/py/objgetitemiter.o
 .debug_info    0x0000000000032ef6     0x1dd0 build/py/objint.o
 .debug_info    0x0000000000034cc6     0x28b9 build/py/objlist.o
 .debug_info    0x000000000003757f      0xa58 build/py/objmap.o
 .debug_info    0x0000000000037fd7     0x1440 build/py/objmodule.o
 .debug_info    0x0000000000039417      0x8e3 build/py/objobject.o
 .debug_info    0x0000000000039cfa      0x7c9 build/py/objpolyiter.o
 .debug_info    0x000000000003a4c3      0x858 build/py/objnone.o
 .debug_info    0x000000000003ad1b     0x10db build/py/objrange.o
 .debug_info    0x000000000003bdf6      0x8cd build/py/objsingleton.o
 .debug_info    0x000000000003c6c3     0x67d3 build/py/objstr.o
 .debug_info    0x0000000000042e96     0x1d8a build/py/objtuple.o
 .debug_info    0x0000000000044c20     0x39b8 build/py/objtype.o
 .debug_info    0x00000000000485d8      0xa7e build/py/objzip.o
 .debug_info    0x0000000000049056      0x78f build/py/opmethods.o
 .debug_info    0x00000000000497e5      0xb08 build/py/sequence.o
 .debug_info    0x000000000004a2ed     0x1ab9 build/py/stream.o
 .debug_info    0x000000000004bda6      0x8bc build/py/binary.o
 .debug_info    0x000000000004c662     0x2712 build/py/builtinimport.o
 .debug_info    0x000000000004ed74     0x1536 build/py/builtinevex.o
 .debug_info    0x00000000000502aa     0x3222 build/py/modbuiltins.o
 .debug_info    0x00000000000534cc     0x2caf build/py/vm.o
 .debug_info    0x000000000005617b     0x11c2 build/py/bc.o
 .debug_info    0x000000000005733d     0x178d build/py/repl.o
 .debug_info    0x0000000000058aca      0x190 build/py/smallint.o
 .debug_info    0x0000000000058c5a      0x3a6 build/py/frozenmod.o
 .debug_info    0x0000000000059000      0xfe8 build/main.o
 .debug_info    0x0000000000059fe8      0x191 build/uart_core.o
 .debug_info    0x000000000005a179      0x561 build/shared/libc/printf.o
 .debug_info    0x000000000005a6da     0x1216 build/shared/readline/readline.o
 .debug_info    0x000000000005b8f0     0x257f build/shared/runtime/pyexec.o
 .debug_info    0x000000000005de6f      0x1b0 build/shared/runtime/stdout_helpers.o
 .debug_info    0x000000000005e01f      0xb96 build/build/_frozen_mpy.o
 .debug_info    0x000000000005ebb5      0x524 ../../../../build/lib/libc/libc.a(crt1.c.obj)
 .debug_info    0x000000000005f0d9       0xd8 ../../../../build/lib/libc/libc.a(strcmp.c.obj)
 .debug_info    0x000000000005f1b1      0x118 ../../../../build/lib/libc/libc.a(strncmp.c.obj)
 .debug_info    0x000000000005f2c9       0xe4 ../../../../build/lib/libc/libc.a(strlen.c.obj)
 .debug_info    0x000000000005f3ad      0x15f ../../../../build/lib/libc/libc.a(memcpy.c.obj)
 .debug_info    0x000000000005f50c      0x145 ../../../../build/lib/libc/libc.a(memset.c.obj)
 .debug_info    0x000000000005f651      0x10d ../../../../build/lib/libc/libc.a(memcmp.c.obj)
 .debug_info    0x000000000005f75e      0x12a ../../../../build/lib/libc/libc.a(memmove.c.obj)
 .debug_info    0x000000000005f888       0xeb ../../../../build/lib/libc/libc.a(strchr.c.obj)
 .debug_info    0x000000000005f973       0xfe ../../../../build/lib/libc/libc.a(write.c.obj)
 .debug_info    0x000000000005fa71       0xf5 ../../../../build/lib/libc/libc.a(read.c.obj)
 .debug_info    0x000000000005fb66       0xba ../../../../build/lib/libc/libc.a(getpid.c.obj)
 .debug_info    0x000000000005fc20       0xce ../../../../build/lib/libc/libc.a(__environ.c.obj)
 .debug_info    0x000000000005fcee      0x134 ../../../../build/lib/libc/libc.a(exit.c.obj)
 .debug_info    0x000000000005fe22       0xb9 ../../../../build/lib/libc/libc.a(_Exit.c.obj)
 .debug_info    0x000000000005fedb       0xf2 ../../../../build/lib/libc/libc.a(waitpid.c.obj)
 .debug_info    0x000000000005ffcd      0x830 ../../../../build/lib/libc/libc.a(sigaction.c.obj)
 .debug_info    0x00000000000607fd      0x116 ../../../../build/lib/libc/libc.a(strchrnul.c.obj)

.debug_abbrev   0x0000000000000000     0xdeee
 .debug_abbrev  0x0000000000000000      0x18a build/py/mpstate.o
 .debug_abbrev  0x000000000000018a      0x254 build/py/nlr.o
 .debug_abbrev  0x00000000000003de      0x20c build/py/nlraarch64.o
 .debug_abbrev  0x00000000000005ea      0x12d build/py/malloc.o
 .debug_abbrev  0x0000000000000717      0x4ec build/py/gc.o
 .debug_abbrev  0x0000000000000c03      0x4e7 build/py/qstr.o
 .debug_abbrev  0x00000000000010ea      0x31e build/py/vstr.o
 .debug_abbrev  0x0000000000001408      0x357 build/py/mpprint.o
 .debug_abbrev  0x000000000000175f       0xdc build/py/unicode.o
 .debug_abbrev  0x000000000000183b      0x183 build/py/reader.o
 .debug_abbrev  0x00000000000019be      0x51d build/py/lexer.o
 .debug_abbrev  0x0000000000001edb      0x4e6 build/py/parse.o
 .debug_abbrev  0x00000000000023c1      0x2b1 build/py/scope.o
 .debug_abbrev  0x0000000000002672      0x600 build/py/compile.o
 .debug_abbrev  0x0000000000002c72      0x298 build/py/emitcommon.o
 .debug_abbrev  0x0000000000002f0a      0x545 build/py/emitbc.o
 .debug_abbrev  0x000000000000344f       0xb2 build/py/parsenumbase.o
 .debug_abbrev  0x0000000000003501      0x2b9 build/py/parsenum.o
 .debug_abbrev  0x00000000000037ba      0x228 build/py/emitglue.o
 .debug_abbrev  0x00000000000039e2      0x754 build/py/runtime.o
 .debug_abbrev  0x0000000000004136      0x20d build/py/scheduler.o
 .debug_abbrev  0x0000000000004343      0x2a9 build/py/argcheck.o
 .debug_abbrev  0x00000000000045ec      0x316 build/py/map.o
 .debug_abbrev  0x0000000000004902      0x520 build/py/obj.o
 .debug_abbrev  0x0000000000004e22      0x299 build/py/objbool.o
 .debug_abbrev  0x00000000000050bb      0x1c8 build/py/objboundmeth.o
 .debug_abbrev  0x0000000000005283      0x179 build/py/objcell.o
 .debug_abbrev  0x00000000000053fc      0x20d build/py/objclosure.o
 .debug_abbrev  0x0000000000005609      0x622 build/py/objdict.o
 .debug_abbrev  0x0000000000005c2b      0x540 build/py/objexcept.o
 .debug_abbrev  0x000000000000616b      0x4ce build/py/objfun.o
 .debug_abbrev  0x0000000000006639      0x463 build/py/objgenerator.o
 .debug_abbrev  0x0000000000006a9c      0x252 build/py/objgetitemiter.o
 .debug_abbrev  0x0000000000006cee      0x490 build/py/objint.o
 .debug_abbrev  0x000000000000717e      0x5f4 build/py/objlist.o
 .debug_abbrev  0x0000000000007772      0x1fa build/py/objmap.o
 .debug_abbrev  0x000000000000796c      0x34f build/py/objmodule.o
 .debug_abbrev  0x0000000000007cbb      0x1b7 build/py/objobject.o
 .debug_abbrev  0x0000000000007e72      0x164 build/py/objpolyiter.o
 .debug_abbrev  0x0000000000007fd6      0x174 build/py/objnone.o
 .debug_abbrev  0x000000000000814a      0x3a8 build/py/objrange.o
 .debug_abbrev  0x00000000000084f2      0x19b build/py/objsingleton.o
 .debug_abbrev  0x000000000000868d      0x692 build/py/objstr.o
 .debug_abbrev  0x0000000000008d1f      0x4e0 build/py/objtuple.o
 .debug_abbrev  0x00000000000091ff      0x615 build/py/objtype.o
 .debug_abbrev  0x0000000000009814      0x1ec build/py/objzip.o
 .debug_abbrev  0x0000000000009a00      0x1cd build/py/opmethods.o
 .debug_abbrev  0x0000000000009bcd      0x24c build/py/sequence.o
 .debug_abbrev  0x0000000000009e19      0x477 build/py/stream.o
 .debug_abbrev  0x000000000000a290      0x297 build/py/binary.o
 .debug_abbrev  0x000000000000a527      0x5a8 build/py/builtinimport.o
 .debug_abbrev  0x000000000000aacf      0x332 build/py/builtinevex.o
 .debug_abbrev  0x000000000000ae01      0x5c0 build/py/modbuiltins.o
 .debug_abbrev  0x000000000000b3c1      0x3e6 build/py/vm.o
 .debug_abbrev  0x000000000000b7a7      0x436 build/py/bc.o
 .debug_abbrev  0x000000000000bbdd      0x3f9 build/py/repl.o
 .debug_abbrev  0x000000000000bfd6       0xac build/py/smallint.o
 .debug_abbrev  0x000000000000c082      0x1a2 build/py/frozenmod.o
 .debug_abbrev  0x000000000000c224      0x231 build/main.o
 .debug_abbrev  0x000000000000c455       0xef build/uart_core.o
 .debug_abbrev  0x000000000000c544      0x1ec build/shared/libc/printf.o
 .debug_abbrev  0x000000000000c730      0x469 build/shared/readline/readline.o
 .debug_abbrev  0x000000000000cb99      0x535 build/shared/runtime/pyexec.o
 .debug_abbrev  0x000000000000d0ce       0xeb build/shared/runtime/stdout_helpers.o
 .debug_abbrev  0x000000000000d1b9      0x14b build/build/_frozen_mpy.o
 .debug_abbrev  0x000000000000d304      0x171 ../../../../build/lib/libc/libc.a(crt1.c.obj)
 .debug_abbrev  0x000000000000d475       0x69 ../../../../build/lib/libc/libc.a(strcmp.c.obj)
 .debug_abbrev  0x000000000000d4de       0x89 ../../../../build/lib/libc/libc.a(strncmp.c.obj)
 .debug_abbrev  0x000000000000d567       0x89 ../../../../build/lib/libc/libc.a(strlen.c.obj)
 .debug_abbrev  0x000000000000d5f0       0xbc ../../../../build/lib/libc/libc.a(memcpy.c.obj)
 .debug_abbrev  0x000000000000d6ac       0xa9 ../../../../build/lib/libc/libc.a(memset.c.obj)
 .debug_abbrev  0x000000000000d755       0x8e ../../../../build/lib/libc/libc.a(memcmp.c.obj)
 .debug_abbrev  0x000000000000d7e3       0xa6 ../../../../build/lib/libc/libc.a(memmove.c.obj)
 .debug_abbrev  0x000000000000d889       0x7a ../../../../build/lib/libc/libc.a(strchr.c.obj)
 .debug_abbrev  0x000000000000d903       0x87 ../../../../build/lib/libc/libc.a(write.c.obj)
 .debug_abbrev  0x000000000000d98a       0x7e ../../../../build/lib/libc/libc.a(read.c.obj)
 .debug_abbrev  0x000000000000da08       0x55 ../../../../build/lib/libc/libc.a(getpid.c.obj)
 .debug_abbrev  0x000000000000da5d       0x62 ../../../../build/lib/libc/libc.a(__environ.c.obj)
 .debug_abbrev  0x000000000000dabf       0xd4 ../../../../build/lib/libc/libc.a(exit.c.obj)
 .debug_abbrev  0x000000000000db93       0x58 ../../../../build/lib/libc/libc.a(_Exit.c.obj)
 .debug_abbrev  0x000000000000dbeb       0x82 ../../../../build/lib/libc/libc.a(waitpid.c.obj)
 .debug_abbrev  0x000000000000dc6d      0x1f8 ../../../../build/lib/libc/libc.a(sigaction.c.obj)
 .debug_abbrev  0x000000000000de65       0x89 ../../../../build/lib/libc/libc.a(strchrnul.c.obj)

.debug_aranges  0x0000000000000000     0x3750
 .debug_aranges
                0x0000000000000000       0x20 build/py/mpstate.o
 .debug_aranges
                0x0000000000000020       0x70 build/py/nlr.o
 .debug_aranges
                0x0000000000000090       0x30 build/py/nlraarch64.o
 .debug_aranges
                0x00000000000000c0       0x80 build/py/malloc.o
 .debug_aranges
                0x0000000000000140      0x120 build/py/gc.o
 .debug_aranges
                0x0000000000000260       0xe0 build/py/qstr.o
 .debug_aranges
                0x0000000000000340      0x1a0 build/py/vstr.o
 .debug_aranges
                0x00000000000004e0       0x90 build/py/mpprint.o
 .debug_aranges
                0x0000000000000570       0xd0 build/py/unicode.o
 .debug_aranges
                0x0000000000000640       0x50 build/py/reader.o
 .debug_aranges
                0x0000000000000690       0x90 build/py/lexer.o
 .debug_aranges
                0x0000000000000720       0xf0 build/py/parse.o
 .debug_aranges
                0x0000000000000810       0x80 build/py/scope.o
 .debug_aranges
                0x0000000000000890      0x4a0 build/py/compile.o
 .debug_aranges
                0x0000000000000d30       0x70 build/py/emitcommon.o
 .debug_aranges
                0x0000000000000da0      0x430 build/py/emitbc.o
 .debug_aranges
                0x00000000000011d0       0x30 build/py/parsenumbase.o
 .debug_aranges
                0x0000000000001200       0x50 build/py/parsenum.o
 .debug_aranges
                0x0000000000001250       0x60 build/py/emitglue.o
 .debug_aranges
                0x00000000000012b0      0x310 build/py/runtime.o
 .debug_aranges
                0x00000000000015c0       0x40 build/py/scheduler.o
 .debug_aranges
                0x0000000000001600       0x60 build/py/argcheck.o
 .debug_aranges
                0x0000000000001660       0x80 build/py/map.o
 .debug_aranges
                0x00000000000016e0      0x190 build/py/obj.o
 .debug_aranges
                0x0000000000001870       0x60 build/py/objbool.o
 .debug_aranges
                0x00000000000018d0       0x50 build/py/objboundmeth.o
 .debug_aranges
                0x0000000000001920       0x30 build/py/objcell.o
 .debug_aranges
                0x0000000000001950       0x40 build/py/objclosure.o
 .debug_aranges
                0x0000000000001990      0x210 build/py/objdict.o
 .debug_aranges
                0x0000000000001ba0      0x150 build/py/objexcept.o
 .debug_aranges
                0x0000000000001cf0       0xa0 build/py/objfun.o
 .debug_aranges
                0x0000000000001d90       0xa0 build/py/objgenerator.o
 .debug_aranges
                0x0000000000001e30       0x40 build/py/objgetitemiter.o
 .debug_aranges
                0x0000000000001e70      0x120 build/py/objint.o
 .debug_aranges
                0x0000000000001f90      0x1c0 build/py/objlist.o
 .debug_aranges
                0x0000000000002150       0x40 build/py/objmap.o
 .debug_aranges
                0x0000000000002190       0x70 build/py/objmodule.o
 .debug_aranges
                0x0000000000002200       0x30 build/py/objobject.o
 .debug_aranges
                0x0000000000002230       0x30 build/py/objpolyiter.o
 .debug_aranges
                0x0000000000002260       0x30 build/py/objnone.o
 .debug_aranges
                0x0000000000002290       0x80 build/py/objrange.o
 .debug_aranges
                0x0000000000002310       0x30 build/py/objsingleton.o
 .debug_aranges
                0x0000000000002340      0x3c0 build/py/objstr.o
 .debug_aranges
                0x0000000000002700       0xe0 build/py/objtuple.o
 .debug_aranges
                0x00000000000027e0      0x1e0 build/py/objtype.o
 .debug_aranges
                0x00000000000029c0       0x40 build/py/objzip.o
 .debug_aranges
                0x0000000000002a00       0x60 build/py/opmethods.o
 .debug_aranges
                0x0000000000002a60       0x80 build/py/sequence.o
 .debug_aranges
                0x0000000000002ae0      0x150 build/py/stream.o
 .debug_aranges
                0x0000000000002c30       0xa0 build/py/binary.o
 .debug_aranges
                0x0000000000002cd0       0x90 build/py/builtinimport.o
 .debug_aranges
                0x0000000000002d60       0x50 build/py/builtinevex.o
 .debug_aranges
                0x0000000000002db0      0x1d0 build/py/modbuiltins.o
 .debug_aranges
                0x0000000000002f80       0x30 build/py/vm.o
 .debug_aranges
                0x0000000000002fb0       0x70 build/py/bc.o
 .debug_aranges
                0x0000000000003020       0x60 build/py/repl.o
 .debug_aranges
                0x0000000000003080       0x50 build/py/smallint.o
 .debug_aranges
                0x00000000000030d0       0x30 build/py/frozenmod.o
 .debug_aranges
                0x0000000000003100       0x90 build/main.o
 .debug_aranges
                0x0000000000003190       0x40 build/uart_core.o
 .debug_aranges
                0x00000000000031d0       0x90 build/shared/libc/printf.o
 .debug_aranges
                0x0000000000003260       0x90 build/shared/readline/readline.o
 .debug_aranges
                0x00000000000032f0       0xa0 build/shared/runtime/pyexec.o
 .debug_aranges
                0x0000000000003390       0x40 build/shared/runtime/stdout_helpers.o
 .debug_aranges
                0x00000000000033d0       0x20 build/build/_frozen_mpy.o
 .debug_aranges
                0x00000000000033f0       0x40 ../../../../build/lib/libc/libc.a(crt1.c.obj)
 .debug_aranges
                0x0000000000003430       0x30 ../../../../build/lib/libc/libc.a(strcmp.c.obj)
 .debug_aranges
                0x0000000000003460       0x30 ../../../../build/lib/libc/libc.a(strncmp.c.obj)
 .debug_aranges
                0x0000000000003490       0x30 ../../../../build/lib/libc/libc.a(strlen.c.obj)
 .debug_aranges
                0x00000000000034c0       0x30 ../../../../build/lib/libc/libc.a(memcpy.c.obj)
 .debug_aranges
                0x00000000000034f0       0x30 ../../../../build/lib/libc/libc.a(memset.c.obj)
 .debug_aranges
                0x0000000000003520       0x30 ../../../../build/lib/libc/libc.a(memcmp.c.obj)
 .debug_aranges
                0x0000000000003550       0x30 ../../../../build/lib/libc/libc.a(memmove.c.obj)
 .debug_aranges
                0x0000000000003580       0x30 ../../../../build/lib/libc/libc.a(strchr.c.obj)
 .debug_aranges
                0x00000000000035b0       0x30 ../../../../build/lib/libc/libc.a(write.c.obj)
 .debug_aranges
                0x00000000000035e0       0x30 ../../../../build/lib/libc/libc.a(read.c.obj)
 .debug_aranges
                0x0000000000003610       0x30 ../../../../build/lib/libc/libc.a(getpid.c.obj)
 .debug_aranges
                0x0000000000003640       0x20 ../../../../build/lib/libc/libc.a(__environ.c.obj)
 .debug_aranges
                0x0000000000003660       0x30 ../../../../build/lib/libc/libc.a(exit.c.obj)
 .debug_aranges
                0x0000000000003690       0x30 ../../../../build/lib/libc/libc.a(_Exit.c.obj)
 .debug_aranges
                0x00000000000036c0       0x30 ../../../../build/lib/libc/libc.a(waitpid.c.obj)
 .debug_aranges
                0x00000000000036f0       0x30 ../../../../build/lib/libc/libc.a(sigaction.c.obj)
 .debug_aranges
                0x0000000000003720       0x30 ../../../../build/lib/libc/libc.a(strchrnul.c.obj)

.debug_line     0x0000000000000000    0x207f3
 .debug_line    0x0000000000000000       0xe7 build/py/mpstate.o
 .debug_line    0x00000000000000e7      0x1e0 build/py/nlr.o
 .debug_line    0x00000000000002c7      0x142 build/py/nlraarch64.o
 .debug_line    0x0000000000000409      0x15d build/py/malloc.o
 .debug_line    0x0000000000000566      0xf1c build/py/gc.o
 .debug_line    0x0000000000001482      0x835 build/py/qstr.o
 .debug_line    0x0000000000001cb7      0x5b4 build/py/vstr.o
 .debug_line    0x000000000000226b      0x9fc build/py/mpprint.o
 .debug_line    0x0000000000002c67      0x2ae build/py/unicode.o
 .debug_line    0x0000000000002f15      0x14b build/py/reader.o
 .debug_line    0x0000000000003060      0xe28 build/py/lexer.o
 .debug_line    0x0000000000003e88      0xd82 build/py/parse.o
 .debug_line    0x0000000000004c0a      0x339 build/py/scope.o
 .debug_line    0x0000000000004f43     0x3ced build/py/compile.o
 .debug_line    0x0000000000008c30      0x30d build/py/emitcommon.o
 .debug_line    0x0000000000008f3d     0x12ca build/py/emitbc.o
 .debug_line    0x000000000000a207      0x16f build/py/parsenumbase.o
 .debug_line    0x000000000000a376      0x43c build/py/parsenum.o
 .debug_line    0x000000000000a7b2      0x1bf build/py/emitglue.o
 .debug_line    0x000000000000a971     0x2559 build/py/runtime.o
 .debug_line    0x000000000000ceca      0x168 build/py/scheduler.o
 .debug_line    0x000000000000d032      0x2cf build/py/argcheck.o
 .debug_line    0x000000000000d301      0x503 build/py/map.o
 .debug_line    0x000000000000d804      0xdc7 build/py/obj.o
 .debug_line    0x000000000000e5cb      0x1ca build/py/objbool.o
 .debug_line    0x000000000000e795      0x188 build/py/objboundmeth.o
 .debug_line    0x000000000000e91d       0xae build/py/objcell.o
 .debug_line    0x000000000000e9cb      0x179 build/py/objclosure.o
 .debug_line    0x000000000000eb44      0xcb8 build/py/objdict.o
 .debug_line    0x000000000000f7fc      0x94d build/py/objexcept.o
 .debug_line    0x0000000000010149      0x59d build/py/objfun.o
 .debug_line    0x00000000000106e6      0x5fe build/py/objgenerator.o
 .debug_line    0x0000000000010ce4      0x193 build/py/objgetitemiter.o
 .debug_line    0x0000000000010e77      0x98e build/py/objint.o
 .debug_line    0x0000000000011805      0xcc8 build/py/objlist.o
 .debug_line    0x00000000000124cd      0x1f0 build/py/objmap.o
 .debug_line    0x00000000000126bd      0x35e build/py/objmodule.o
 .debug_line    0x0000000000012a1b       0xc3 build/py/objobject.o
 .debug_line    0x0000000000012ade       0x96 build/py/objpolyiter.o
 .debug_line    0x0000000000012b74       0xa0 build/py/objnone.o
 .debug_line    0x0000000000012c14      0x446 build/py/objrange.o
 .debug_line    0x000000000001305a       0xa4 build/py/objsingleton.o
 .debug_line    0x00000000000130fe     0x3142 build/py/objstr.o
 .debug_line    0x0000000000016240      0x626 build/py/objtuple.o
 .debug_line    0x0000000000016866     0x1550 build/py/objtype.o
 .debug_line    0x0000000000017db6      0x1de build/py/objzip.o
 .debug_line    0x0000000000017f94      0x14d build/py/opmethods.o
 .debug_line    0x00000000000180e1      0x50f build/py/sequence.o
 .debug_line    0x00000000000185f0      0x889 build/py/stream.o
 .debug_line    0x0000000000018e79      0x524 build/py/binary.o
 .debug_line    0x000000000001939d      0x7f6 build/py/builtinimport.o
 .debug_line    0x0000000000019b93      0x29b build/py/builtinevex.o
 .debug_line    0x0000000000019e2e      0xaea build/py/modbuiltins.o
 .debug_line    0x000000000001a918     0x1a82 build/py/vm.o
 .debug_line    0x000000000001c39a      0x7f0 build/py/bc.o
 .debug_line    0x000000000001cb8a      0x70c build/py/repl.o
 .debug_line    0x000000000001d296      0x1ad build/py/smallint.o
 .debug_line    0x000000000001d443      0x1db build/py/frozenmod.o
 .debug_line    0x000000000001d61e      0x2b2 build/main.o
 .debug_line    0x000000000001d8d0       0xed build/uart_core.o
 .debug_line    0x000000000001d9bd      0x25a build/shared/libc/printf.o
 .debug_line    0x000000000001dc17      0x7b1 build/shared/readline/readline.o
 .debug_line    0x000000000001e3c8      0x8f0 build/shared/runtime/pyexec.o
 .debug_line    0x000000000001ecb8      0x142 build/shared/runtime/stdout_helpers.o
 .debug_line    0x000000000001edfa       0xc0 build/build/_frozen_mpy.o
 .debug_line    0x000000000001eeba      0x16d ../../../../build/lib/libc/libc.a(crt1.c.obj)
 .debug_line    0x000000000001f027       0xaf ../../../../build/lib/libc/libc.a(strcmp.c.obj)
 .debug_line    0x000000000001f0d6      0x123 ../../../../build/lib/libc/libc.a(strncmp.c.obj)
 .debug_line    0x000000000001f1f9       0xd0 ../../../../build/lib/libc/libc.a(strlen.c.obj)
 .debug_line    0x000000000001f2c9      0x682 ../../../../build/lib/libc/libc.a(memcpy.c.obj)
 .debug_line    0x000000000001f94b      0x1f9 ../../../../build/lib/libc/libc.a(memset.c.obj)
 .debug_line    0x000000000001fb44      0x116 ../../../../build/lib/libc/libc.a(memcmp.c.obj)
 .debug_line    0x000000000001fc5a      0x1fd ../../../../build/lib/libc/libc.a(memmove.c.obj)
 .debug_line    0x000000000001fe57       0x8e ../../../../build/lib/libc/libc.a(strchr.c.obj)
 .debug_line    0x000000000001fee5       0xbb ../../../../build/lib/libc/libc.a(write.c.obj)
 .debug_line    0x000000000001ffa0       0xba ../../../../build/lib/libc/libc.a(read.c.obj)
 .debug_line    0x000000000002005a       0xbc ../../../../build/lib/libc/libc.a(getpid.c.obj)
 .debug_line    0x0000000000020116       0x9a ../../../../build/lib/libc/libc.a(__environ.c.obj)
 .debug_line    0x00000000000201b0       0xea ../../../../build/lib/libc/libc.a(exit.c.obj)
 .debug_line    0x000000000002029a       0x6f ../../../../build/lib/libc/libc.a(_Exit.c.obj)
 .debug_line    0x0000000000020309       0xbe ../../../../build/lib/libc/libc.a(waitpid.c.obj)
 .debug_line    0x00000000000203c7      0x2c9 ../../../../build/lib/libc/libc.a(sigaction.c.obj)
 .debug_line    0x0000000000020690      0x163 ../../../../build/lib/libc/libc.a(strchrnul.c.obj)

.debug_str      0x0000000000000000     0xd7e2
 .debug_str     0x0000000000000000      0x568 build/py/mpstate.o
                                        0x701 (size before relaxing)
 .debug_str     0x0000000000000568       0x77 build/py/nlr.o
                                        0x76a (size before relaxing)
 .debug_str     0x00000000000005df       0xa1 build/py/nlraarch64.o
                                        0x740 (size before relaxing)
 .debug_str     0x0000000000000680       0x99 build/py/malloc.o
                                        0x1fd (size before relaxing)
 .debug_str     0x0000000000000719      0x2f3 build/py/gc.o
                                        0xa8b (size before relaxing)
 .debug_str     0x0000000000000a0c      0xfb6 build/py/qstr.o
                                       0x172b (size before relaxing)
 .debug_str     0x00000000000019c2      0x1ea build/py/vstr.o
                                        0x559 (size before relaxing)
 .debug_str     0x0000000000001bac      0x1ae build/py/mpprint.o
                                        0x55a (size before relaxing)
 .debug_str     0x0000000000001d5a       0xc9 build/py/unicode.o
                                        0x243 (size before relaxing)
 .debug_str     0x0000000000001e23       0x7d build/py/reader.o
                                        0x229 (size before relaxing)
 .debug_str     0x0000000000001ea0      0xa9a build/py/lexer.o
                                       0x1361 (size before relaxing)
 .debug_str     0x000000000000293a     0x2c70 build/py/parse.o
                                       0x4710 (size before relaxing)
 .debug_str     0x00000000000055aa      0x2d6 build/py/scope.o
                                       0x12f0 (size before relaxing)
 .debug_str     0x0000000000005880     0x2664 build/py/compile.o
                                       0x4953 (size before relaxing)
 .debug_str     0x0000000000007ee4       0xba build/py/emitcommon.o
                                        0x8b6 (size before relaxing)
 .debug_str     0x0000000000007f9e      0x400 build/py/emitbc.o
                                       0x2c63 (size before relaxing)
 .debug_str     0x000000000000839e       0x34 build/py/parsenumbase.o
                                        0x19e (size before relaxing)
 .debug_str     0x00000000000083d2       0xae build/py/parsenum.o
                                       0x1a92 (size before relaxing)
 .debug_str     0x0000000000008480       0xd8 build/py/emitglue.o
                                        0x5a3 (size before relaxing)
 .debug_str     0x0000000000008558      0xc5b build/py/runtime.o
                                       0x358c (size before relaxing)
 .debug_str     0x00000000000091b3       0x47 build/py/scheduler.o
                                        0x748 (size before relaxing)
 .debug_str     0x00000000000091fa      0x18a build/py/argcheck.o
                                        0x4d5 (size before relaxing)
 .debug_str     0x0000000000009384       0xc2 build/py/map.o
                                        0x646 (size before relaxing)
 .debug_str     0x0000000000009446      0x30d build/py/obj.o
                                       0x1cf6 (size before relaxing)
 .debug_str     0x0000000000009753       0x7d build/py/objbool.o
                                       0x1854 (size before relaxing)
 .debug_str     0x00000000000097d0       0x7c build/py/objboundmeth.o
                                       0x1195 (size before relaxing)
 .debug_str     0x000000000000984c       0x3f build/py/objcell.o
                                       0x10c8 (size before relaxing)
 .debug_str     0x000000000000988b       0x4e build/py/objclosure.o
                                       0x1173 (size before relaxing)
 .debug_str     0x00000000000098d9      0x43a build/py/objdict.o
                                       0x20c1 (size before relaxing)
 .debug_str     0x0000000000009d13      0x279 build/py/objexcept.o
                                       0x1c9e (size before relaxing)
 .debug_str     0x0000000000009f8c      0x1c7 build/py/objfun.o
                                       0x1a57 (size before relaxing)
 .debug_str     0x000000000000a153      0x186 build/py/objgenerator.o
                                       0x1c3f (size before relaxing)
 .debug_str     0x000000000000a2d9       0x3c build/py/objgetitemiter.o
                                       0x11c6 (size before relaxing)
 .debug_str     0x000000000000a315      0x1d3 build/py/objint.o
                                       0x1dfc (size before relaxing)
 .debug_str     0x000000000000a4e8      0x2cd build/py/objlist.o
                                       0x1f8e (size before relaxing)
 .debug_str     0x000000000000a7b5       0x56 build/py/objmap.o
                                       0x1199 (size before relaxing)
 .debug_str     0x000000000000a80b      0x148 build/py/objmodule.o
                                       0x1913 (size before relaxing)
 .debug_str     0x000000000000a953       0x45 build/py/objobject.o
                                       0x1136 (size before relaxing)
 .debug_str     0x000000000000a998       0x46 build/py/objpolyiter.o
                                       0x10fc (size before relaxing)
 .debug_str     0x000000000000a9de       0x1e build/py/objnone.o
                                       0x114a (size before relaxing)
 .debug_str     0x000000000000a9fc       0xd1 build/py/objrange.o
                                       0x1478 (size before relaxing)
 .debug_str     0x000000000000aacd       0x3a build/py/objsingleton.o
                                       0x1199 (size before relaxing)
 .debug_str     0x000000000000ab07      0x7d4 build/py/objstr.o
                                       0x2777 (size before relaxing)
 .debug_str     0x000000000000b2db      0x168 build/py/objtuple.o
                                       0x1d47 (size before relaxing)
 .debug_str     0x000000000000b443      0x3c9 build/py/objtype.o
                                       0x2272 (size before relaxing)
 .debug_str     0x000000000000b80c       0x46 build/py/objzip.o
                                       0x11b8 (size before relaxing)
 .debug_str     0x000000000000b852       0x65 build/py/opmethods.o
                                        0x91a (size before relaxing)
 .debug_str     0x000000000000b8b7       0x84 build/py/sequence.o
                                        0x98c (size before relaxing)
 .debug_str     0x000000000000b93b      0x2fc build/py/stream.o
                                        0x9a4 (size before relaxing)
 .debug_str     0x000000000000bc37       0xdd build/py/binary.o
                                        0x38e (size before relaxing)
 .debug_str     0x000000000000bd14      0x33a build/py/builtinimport.o
                                       0x2631 (size before relaxing)
 .debug_str     0x000000000000c04e       0x70 build/py/builtinevex.o
                                       0x1f69 (size before relaxing)
 .debug_str     0x000000000000c0be      0x4df build/py/modbuiltins.o
                                       0x2a38 (size before relaxing)
 .debug_str     0x000000000000c59d      0x167 build/py/vm.o
                                       0x230d (size before relaxing)
 .debug_str     0x000000000000c704      0x101 build/py/bc.o
                                        0x81c (size before relaxing)
 .debug_str     0x000000000000c805      0x100 build/py/repl.o
                                       0x17b4 (size before relaxing)
 .debug_str     0x000000000000c905       0x2b build/py/smallint.o
                                        0x1e5 (size before relaxing)
 .debug_str     0x000000000000c930       0x4d build/py/frozenmod.o
                                        0x338 (size before relaxing)
 .debug_str     0x000000000000c97d       0x4c build/main.o
                                       0x1ab7 (size before relaxing)
 .debug_str     0x000000000000c9c9       0x36 build/uart_core.o
                                        0x19b (size before relaxing)
 .debug_str     0x000000000000c9ff       0x63 build/shared/libc/printf.o
                                        0x2a0 (size before relaxing)
 .debug_str     0x000000000000ca62      0x232 build/shared/readline/readline.o
                                        0xac4 (size before relaxing)
 .debug_str     0x000000000000cc94      0x1fa build/shared/runtime/pyexec.o
                                       0x2435 (size before relaxing)
 .debug_str     0x000000000000ce8e       0x26 build/shared/runtime/stdout_helpers.o
                                        0x1cd (size before relaxing)
 .debug_str     0x000000000000ceb4      0x162 build/build/_frozen_mpy.o
                                       0x141e (size before relaxing)
 .debug_str     0x000000000000d016      0x2c7 ../../../../build/lib/libc/libc.a(crt1.c.obj)
                                        0x3a6 (size before relaxing)
 .debug_str     0x000000000000d2dd       0x3c ../../../../build/lib/libc/libc.a(strcmp.c.obj)
                                        0x179 (size before relaxing)
 .debug_str     0x000000000000d319       0x3d ../../../../build/lib/libc/libc.a(strncmp.c.obj)
                                        0x182 (size before relaxing)
 .debug_str     0x000000000000d356       0x3c ../../../../build/lib/libc/libc.a(strlen.c.obj)
                                        0x180 (size before relaxing)
 .debug_str     0x000000000000d392       0x3c ../../../../build/lib/libc/libc.a(memcpy.c.obj)
                                        0x193 (size before relaxing)
 .debug_str     0x000000000000d3ce       0x3c ../../../../build/lib/libc/libc.a(memset.c.obj)
                                        0x18a (size before relaxing)
 .debug_str     0x000000000000d40a       0x3c ../../../../build/lib/libc/libc.a(memcmp.c.obj)
                                        0x17b (size before relaxing)
 .debug_str     0x000000000000d446       0x3d ../../../../build/lib/libc/libc.a(memmove.c.obj)
                                        0x191 (size before relaxing)
 .debug_str     0x000000000000d483       0x3c ../../../../build/lib/libc/libc.a(strchr.c.obj)
                                        0x179 (size before relaxing)
 .debug_str     0x000000000000d4bf       0x3b ../../../../build/lib/libc/libc.a(write.c.obj)
                                        0x18c (size before relaxing)
 .debug_str     0x000000000000d4fa       0x3a ../../../../build/lib/libc/libc.a(read.c.obj)
                                        0x18a (size before relaxing)
 .debug_str     0x000000000000d534       0x43 ../../../../build/lib/libc/libc.a(getpid.c.obj)
                                        0x17f (size before relaxing)
 .debug_str     0x000000000000d577       0x47 ../../../../build/lib/libc/libc.a(__environ.c.obj)
                                        0x198 (size before relaxing)
 .debug_str     0x000000000000d5be       0x6b ../../../../build/lib/libc/libc.a(exit.c.obj)
                                        0x1bb (size before relaxing)
 .debug_str     0x000000000000d629       0x3f ../../../../build/lib/libc/libc.a(_Exit.c.obj)
                                        0x175 (size before relaxing)
 .debug_str     0x000000000000d668       0x46 ../../../../build/lib/libc/libc.a(waitpid.c.obj)
                                        0x191 (size before relaxing)
 .debug_str     0x000000000000d6ae       0xe9 ../../../../build/lib/libc/libc.a(sigaction.c.obj)
                                        0x439 (size before relaxing)
 .debug_str     0x000000000000d797       0x4b ../../../../build/lib/libc/libc.a(strchrnul.c.obj)
                                        0x192 (size before relaxing)

.comment        0x0000000000000000       0x5d
 .comment       0x0000000000000000       0x5d build/py/mpstate.o
                                         0x5e (size before relaxing)
 .comment       0x000000000000005d       0x5e build/py/nlr.o
 .comment       0x000000000000005d       0x5e build/py/nlraarch64.o
 .comment       0x000000000000005d       0x5e build/py/malloc.o
 .comment       0x000000000000005d       0x5e build/py/gc.o
 .comment       0x000000000000005d       0x5e build/py/qstr.o
 .comment       0x000000000000005d       0x5e build/py/vstr.o
 .comment       0x000000000000005d       0x5e build/py/mpprint.o
 .comment       0x000000000000005d       0x5e build/py/unicode.o
 .comment       0x000000000000005d       0x5e build/py/reader.o
 .comment       0x000000000000005d       0x5e build/py/lexer.o
 .comment       0x000000000000005d       0x5e build/py/parse.o
 .comment       0x000000000000005d       0x5e build/py/scope.o
 .comment       0x000000000000005d       0x5e build/py/compile.o
 .comment       0x000000000000005d       0x5e build/py/emitcommon.o
 .comment       0x000000000000005d       0x5e build/py/emitbc.o
 .comment       0x000000000000005d       0x5e build/py/parsenumbase.o
 .comment       0x000000000000005d       0x5e build/py/parsenum.o
 .comment       0x000000000000005d       0x5e build/py/emitglue.o
 .comment       0x000000000000005d       0x5e build/py/runtime.o
 .comment       0x000000000000005d       0x5e build/py/scheduler.o
 .comment       0x000000000000005d       0x5e build/py/argcheck.o
 .comment       0x000000000000005d       0x5e build/py/map.o
 .comment       0x000000000000005d       0x5e build/py/obj.o
 .comment       0x000000000000005d       0x5e build/py/objbool.o
 .comment       0x000000000000005d       0x5e build/py/objboundmeth.o
 .comment       0x000000000000005d       0x5e build/py/objcell.o
 .comment       0x000000000000005d       0x5e build/py/objclosure.o
 .comment       0x000000000000005d       0x5e build/py/objdict.o
 .comment       0x000000000000005d       0x5e build/py/objexcept.o
 .comment       0x000000000000005d       0x5e build/py/objfun.o
 .comment       0x000000000000005d       0x5e build/py/objgenerator.o
 .comment       0x000000000000005d       0x5e build/py/objgetitemiter.o
 .comment       0x000000000000005d       0x5e build/py/objint.o
 .comment       0x000000000000005d       0x5e build/py/objlist.o
 .comment       0x000000000000005d       0x5e build/py/objmap.o
 .comment       0x000000000000005d       0x5e build/py/objmodule.o
 .comment       0x000000000000005d       0x5e build/py/objobject.o
 .comment       0x000000000000005d       0x5e build/py/objpolyiter.o
 .comment       0x000000000000005d       0x5e build/py/objnone.o
 .comment       0x000000000000005d       0x5e build/py/objrange.o
 .comment       0x000000000000005d       0x5e build/py/objsingleton.o
 .comment       0x000000000000005d       0x5e build/py/objstr.o
 .comment       0x000000000000005d       0x5e build/py/objtuple.o
 .comment       0x000000000000005d       0x5e build/py/objtype.o
 .comment       0x000000000000005d       0x5e build/py/objzip.o
 .comment       0x000000000000005d       0x5e build/py/opmethods.o
 .comment       0x000000000000005d       0x5e build/py/sequence.o
 .comment       0x000000000000005d       0x5e build/py/stream.o
 .comment       0x000000000000005d       0x5e build/py/binary.o
 .comment       0x000000000000005d       0x5e build/py/builtinimport.o
 .comment       0x000000000000005d       0x5e build/py/builtinevex.o
 .comment       0x000000000000005d       0x5e build/py/modbuiltins.o
 .comment       0x000000000000005d       0x5e build/py/vm.o
 .comment       0x000000000000005d       0x5e build/py/bc.o
 .comment       0x000000000000005d       0x5e build/py/repl.o
 .comment       0x000000000000005d       0x5e build/py/smallint.o
 .comment       0x000000000000005d       0x5e build/py/frozenmod.o
 .comment       0x000000000000005d       0x5e build/main.o
 .comment       0x000000000000005d       0x5e build/uart_core.o
 .comment       0x000000000000005d       0x5e build/shared/libc/printf.o
 .comment       0x000000000000005d       0x5e build/shared/readline/readline.o
 .comment       0x000000000000005d       0x5e build/shared/runtime/pyexec.o
 .comment       0x000000000000005d       0x5e build/shared/runtime/stdout_helpers.o
 .comment       0x000000000000005d       0x5e build/build/_frozen_mpy.o
 .comment       0x000000000000005d       0x5e ../../../../build/lib/libc/libc.a(crt1.c.obj)
 .comment       0x000000000000005d       0x5e ../../../../build/lib/libc/libc.a(strcmp.c.obj)
 .comment       0x000000000000005d       0x5e ../../../../build/lib/libc/libc.a(strncmp.c.obj)
 .comment       0x000000000000005d       0x5e ../../../../build/lib/libc/libc.a(strlen.c.obj)
 .comment       0x000000000000005d       0x5e ../../../../build/lib/libc/libc.a(memcpy.c.obj)
 .comment       0x000000000000005d       0x5e ../../../../build/lib/libc/libc.a(memset.c.obj)
 .comment       0x000000000000005d       0x5e ../../../../build/lib/libc/libc.a(memcmp.c.obj)
 .comment       0x000000000000005d       0x5e ../../../../build/lib/libc/libc.a(memmove.c.obj)
 .comment       0x000000000000005d       0x5e ../../../../build/lib/libc/libc.a(strchr.c.obj)
 .comment       0x000000000000005d       0x5e ../../../../build/lib/libc/libc.a(write.c.obj)
 .comment       0x000000000000005d       0x5e ../../../../build/lib/libc/libc.a(read.c.obj)
 .comment       0x000000000000005d       0x5e ../../../../build/lib/libc/libc.a(getpid.c.obj)
 .comment       0x000000000000005d       0x5e ../../../../build/lib/libc/libc.a(__environ.c.obj)
 .comment       0x000000000000005d       0x5e ../../../../build/lib/libc/libc.a(exit.c.obj)
 .comment       0x000000000000005d       0x5e ../../../../build/lib/libc/libc.a(_Exit.c.obj)
 .comment       0x000000000000005d       0x5e ../../../../build/lib/libc/libc.a(waitpid.c.obj)
 .comment       0x000000000000005d       0x5e ../../../../build/lib/libc/libc.a(sigaction.c.obj)
 .comment       0x000000000000005d       0x5e ../../../../build/lib/libc/libc.a(strchrnul.c.obj)

.note.GNU-stack
                0x0000000000000000        0x0
 .note.GNU-stack
                0x0000000000000000        0x0 build/py/mpstate.o
 .note.GNU-stack
                0x0000000000000000        0x0 build/py/nlr.o
 .note.GNU-stack
                0x0000000000000000        0x0 build/py/nlraarch64.o
 .note.GNU-stack
                0x0000000000000000        0x0 build/py/malloc.o
 .note.GNU-stack
                0x0000000000000000        0x0 build/py/gc.o
 .note.GNU-stack
                0x0000000000000000        0x0 build/py/qstr.o
 .note.GNU-stack
                0x0000000000000000        0x0 build/py/vstr.o
 .note.GNU-stack
                0x0000000000000000        0x0 build/py/mpprint.o
 .note.GNU-stack
                0x0000000000000000        0x0 build/py/unicode.o
 .note.GNU-stack
                0x0000000000000000        0x0 build/py/reader.o
 .note.GNU-stack
                0x0000000000000000        0x0 build/py/lexer.o
 .note.GNU-stack
                0x0000000000000000        0x0 build/py/parse.o
 .note.GNU-stack
                0x0000000000000000        0x0 build/py/scope.o
 .note.GNU-stack
                0x0000000000000000        0x0 build/py/compile.o
 .note.GNU-stack
                0x0000000000000000        0x0 build/py/emitcommon.o
 .note.GNU-stack
                0x0000000000000000        0x0 build/py/emitbc.o
 .note.GNU-stack
                0x0000000000000000        0x0 build/py/parsenumbase.o
 .note.GNU-stack
                0x0000000000000000        0x0 build/py/parsenum.o
 .note.GNU-stack
                0x0000000000000000        0x0 build/py/emitglue.o
 .note.GNU-stack
                0x0000000000000000        0x0 build/py/runtime.o
 .note.GNU-stack
                0x0000000000000000        0x0 build/py/scheduler.o
 .note.GNU-stack
                0x0000000000000000        0x0 build/py/argcheck.o
 .note.GNU-stack
                0x0000000000000000        0x0 build/py/map.o
 .note.GNU-stack
                0x0000000000000000        0x0 build/py/obj.o
 .note.GNU-stack
                0x0000000000000000        0x0 build/py/objbool.o
 .note.GNU-stack
                0x0000000000000000        0x0 build/py/objboundmeth.o
 .note.GNU-stack
                0x0000000000000000        0x0 build/py/objcell.o
 .note.GNU-stack
                0x0000000000000000        0x0 build/py/objclosure.o
 .note.GNU-stack
                0x0000000000000000        0x0 build/py/objdict.o
 .note.GNU-stack
                0x0000000000000000        0x0 build/py/objexcept.o
 .note.GNU-stack
                0x0000000000000000        0x0 build/py/objfun.o
 .note.GNU-stack
                0x0000000000000000        0x0 build/py/objgenerator.o
 .note.GNU-stack
                0x0000000000000000        0x0 build/py/objgetitemiter.o
 .note.GNU-stack
                0x0000000000000000        0x0 build/py/objint.o
 .note.GNU-stack
                0x0000000000000000        0x0 build/py/objlist.o
 .note.GNU-stack
                0x0000000000000000        0x0 build/py/objmap.o
 .note.GNU-stack
                0x0000000000000000        0x0 build/py/objmodule.o
 .note.GNU-stack
                0x0000000000000000        0x0 build/py/objobject.o
 .note.GNU-stack
                0x0000000000000000        0x0 build/py/objpolyiter.o
 .note.GNU-stack
                0x0000000000000000        0x0 build/py/objnone.o
 .note.GNU-stack
                0x0000000000000000        0x0 build/py/objrange.o
 .note.GNU-stack
                0x0000000000000000        0x0 build/py/objsingleton.o
 .note.GNU-stack
                0x0000000000000000        0x0 build/py/objstr.o
 .note.GNU-stack
                0x0000000000000000        0x0 build/py/objtuple.o
 .note.GNU-stack
                0x0000000000000000        0x0 build/py/objtype.o
 .note.GNU-stack
                0x0000000000000000        0x0 build/py/objzip.o
 .note.GNU-stack
                0x0000000000000000        0x0 build/py/opmethods.o
 .note.GNU-stack
                0x0000000000000000        0x0 build/py/sequence.o
 .note.GNU-stack
                0x0000000000000000        0x0 build/py/stream.o
 .note.GNU-stack
                0x0000000000000000        0x0 build/py/binary.o
 .note.GNU-stack
                0x0000000000000000        0x0 build/py/builtinimport.o
 .note.GNU-stack
                0x0000000000000000        0x0 build/py/builtinevex.o
 .note.GNU-stack
                0x0000000000000000        0x0 build/py/modbuiltins.o
 .note.GNU-stack
                0x0000000000000000        0x0 build/py/vm.o
 .note.GNU-stack
                0x0000000000000000        0x0 build/py/bc.o
 .note.GNU-stack
                0x0000000000000000        0x0 build/py/repl.o
 .note.GNU-stack
                0x0000000000000000        0x0 build/py/smallint.o
 .note.GNU-stack
                0x0000000000000000        0x0 build/py/frozenmod.o
 .note.GNU-stack
                0x0000000000000000        0x0 build/main.o
 .note.GNU-stack
                0x0000000000000000        0x0 build/uart_core.o
 .note.GNU-stack
                0x0000000000000000        0x0 build/shared/libc/printf.o
 .note.GNU-stack
                0x0000000000000000        0x0 build/shared/readline/readline.o
 .note.GNU-stack
                0x0000000000000000        0x0 build/shared/runtime/pyexec.o
 .note.GNU-stack
                0x0000000000000000        0x0 build/shared/runtime/stdout_helpers.o
 .note.GNU-stack
                0x0000000000000000        0x0 build/build/_frozen_mpy.o
 .note.GNU-stack
                0x0000000000000000        0x0 ../../../../build/lib/libc/libc.a(crt1.c.obj)
 .note.GNU-stack
                0x0000000000000000        0x0 ../../../../build/lib/libc/libc.a(strcmp.c.obj)
 .note.GNU-stack
                0x0000000000000000        0x0 ../../../../build/lib/libc/libc.a(strncmp.c.obj)
 .note.GNU-stack
                0x0000000000000000        0x0 ../../../../build/lib/libc/libc.a(strlen.c.obj)
 .note.GNU-stack
                0x0000000000000000        0x0 ../../../../build/lib/libc/libc.a(memcpy.c.obj)
 .note.GNU-stack
                0x0000000000000000        0x0 ../../../../build/lib/libc/libc.a(memset.c.obj)
 .note.GNU-stack
                0x0000000000000000        0x0 ../../../../build/lib/libc/libc.a(memcmp.c.obj)
 .note.GNU-stack
                0x0000000000000000        0x0 ../../../../build/lib/libc/libc.a(memmove.c.obj)
 .note.GNU-stack
                0x0000000000000000        0x0 ../../../../build/lib/libc/libc.a(strchr.c.obj)
 .note.GNU-stack
                0x0000000000000000        0x0 ../../../../build/lib/libc/libc.a(write.c.obj)
 .note.GNU-stack
                0x0000000000000000        0x0 ../../../../build/lib/libc/libc.a(read.c.obj)
 .note.GNU-stack
                0x0000000000000000        0x0 ../../../../build/lib/libc/libc.a(getpid.c.obj)
 .note.GNU-stack
                0x0000000000000000        0x0 ../../../../build/lib/libc/libc.a(__environ.c.obj)
 .note.GNU-stack
                0x0000000000000000        0x0 ../../../../build/lib/libc/libc.a(exit.c.obj)
 .note.GNU-stack
                0x0000000000000000        0x0 ../../../../build/lib/libc/libc.a(_Exit.c.obj)
 .note.GNU-stack
                0x0000000000000000        0x0 ../../../../build/lib/libc/libc.a(waitpid.c.obj)
 .note.GNU-stack
                0x0000000000000000        0x0 ../../../../build/lib/libc/libc.a(sigaction.c.obj)
 .note.GNU-stack
                0x0000000000000000        0x0 ../../../../build/lib/libc/libc.a(strchrnul.c.obj)

.debug_loc      0x0000000000000000    0x4ee60
 .debug_loc     0x0000000000000000      0x12e build/py/nlr.o
 .debug_loc     0x000000000000012e       0xa4 build/py/nlraarch64.o
 .debug_loc     0x00000000000001d2      0x2c3 build/py/malloc.o
 .debug_loc     0x0000000000000495     0x1865 build/py/gc.o
 .debug_loc     0x0000000000001cfa     0x110f build/py/qstr.o
 .debug_loc     0x0000000000002e09     0x10ed build/py/vstr.o
 .debug_loc     0x0000000000003ef6     0x2a6e build/py/mpprint.o
 .debug_loc     0x0000000000006964      0x483 build/py/unicode.o
 .debug_loc     0x0000000000006de7      0x39a build/py/reader.o
 .debug_loc     0x0000000000007181     0x19e2 build/py/lexer.o
 .debug_loc     0x0000000000008b63     0x231c build/py/parse.o
 .debug_loc     0x000000000000ae7f      0x6d3 build/py/scope.o
 .debug_loc     0x000000000000b552     0xbc6a build/py/compile.o
 .debug_loc     0x00000000000171bc      0x80d build/py/emitcommon.o
 .debug_loc     0x00000000000179c9     0x47fe build/py/emitbc.o
 .debug_loc     0x000000000001c1c7      0x374 build/py/parsenumbase.o
 .debug_loc     0x000000000001c53b      0x630 build/py/parsenum.o
 .debug_loc     0x000000000001cb6b      0x329 build/py/emitglue.o
 .debug_loc     0x000000000001ce94     0x5038 build/py/runtime.o
 .debug_loc     0x0000000000021ecc       0x9d build/py/scheduler.o
 .debug_loc     0x0000000000021f69      0x78a build/py/argcheck.o
 .debug_loc     0x00000000000226f3      0x838 build/py/map.o
 .debug_loc     0x0000000000022f2b     0x1d26 build/py/obj.o
 .debug_loc     0x0000000000024c51      0x6b0 build/py/objbool.o
 .debug_loc     0x0000000000025301      0x629 build/py/objboundmeth.o
 .debug_loc     0x000000000002592a       0x75 build/py/objcell.o
 .debug_loc     0x000000000002599f      0x4ed build/py/objclosure.o
 .debug_loc     0x0000000000025e8c     0x2c1e build/py/objdict.o
 .debug_loc     0x0000000000028aaa     0x1adf build/py/objexcept.o
 .debug_loc     0x000000000002a589     0x1a59 build/py/objfun.o
 .debug_loc     0x000000000002bfe2      0xe03 build/py/objgenerator.o
 .debug_loc     0x000000000002cde5      0x200 build/py/objgetitemiter.o
 .debug_loc     0x000000000002cfe5     0x19a5 build/py/objint.o
 .debug_loc     0x000000000002e98a     0x272b build/py/objlist.o
 .debug_loc     0x00000000000310b5      0x55b build/py/objmap.o
 .debug_loc     0x0000000000031610      0x602 build/py/objmodule.o
 .debug_loc     0x0000000000031c12      0x212 build/py/objobject.o
 .debug_loc     0x0000000000031e24       0x7a build/py/objpolyiter.o
 .debug_loc     0x0000000000031e9e       0xb7 build/py/objnone.o
 .debug_loc     0x0000000000031f55      0xd37 build/py/objrange.o
 .debug_loc     0x0000000000032c8c       0xf4 build/py/objsingleton.o
 .debug_loc     0x0000000000032d80     0x7d06 build/py/objstr.o
 .debug_loc     0x000000000003aa86     0x18d2 build/py/objtuple.o
 .debug_loc     0x000000000003c358     0x389d build/py/objtype.o
 .debug_loc     0x000000000003fbf5      0x4bb build/py/objzip.o
 .debug_loc     0x00000000000400b0      0x433 build/py/opmethods.o
 .debug_loc     0x00000000000404e3     0x1167 build/py/sequence.o
 .debug_loc     0x000000000004164a     0x1838 build/py/stream.o
 .debug_loc     0x0000000000042e82      0xffb build/py/binary.o
 .debug_loc     0x0000000000043e7d     0x101f build/py/builtinimport.o
 .debug_loc     0x0000000000044e9c      0x3bb build/py/builtinevex.o
 .debug_loc     0x0000000000045257     0x190b build/py/modbuiltins.o
 .debug_loc     0x0000000000046b62     0x2f68 build/py/vm.o
 .debug_loc     0x0000000000049aca     0x1825 build/py/bc.o
 .debug_loc     0x000000000004b2ef     0x113c build/py/repl.o
 .debug_loc     0x000000000004c42b      0x1f9 build/py/smallint.o
 .debug_loc     0x000000000004c624      0x2b5 build/py/frozenmod.o
 .debug_loc     0x000000000004c8d9      0x27b build/main.o
 .debug_loc     0x000000000004cb54       0xa4 build/uart_core.o
 .debug_loc     0x000000000004cbf8      0x4ae build/shared/libc/printf.o
 .debug_loc     0x000000000004d0a6      0xe6b build/shared/readline/readline.o
 .debug_loc     0x000000000004df11      0xd9d build/shared/runtime/pyexec.o
 .debug_loc     0x000000000004ecae      0x1b2 build/shared/runtime/stdout_helpers.o

.debug_ranges   0x0000000000000000     0xc4d0
 .debug_ranges  0x0000000000000000       0x60 build/py/nlr.o
 .debug_ranges  0x0000000000000060       0x20 build/py/nlraarch64.o
 .debug_ranges  0x0000000000000080       0x70 build/py/malloc.o
 .debug_ranges  0x00000000000000f0      0x890 build/py/gc.o
 .debug_ranges  0x0000000000000980      0x3d0 build/py/qstr.o
 .debug_ranges  0x0000000000000d50      0x1c0 build/py/vstr.o
 .debug_ranges  0x0000000000000f10      0x170 build/py/mpprint.o
 .debug_ranges  0x0000000000001080       0xc0 build/py/unicode.o
 .debug_ranges  0x0000000000001140       0x40 build/py/reader.o
 .debug_ranges  0x0000000000001180      0x4f0 build/py/lexer.o
 .debug_ranges  0x0000000000001670      0x650 build/py/parse.o
 .debug_ranges  0x0000000000001cc0      0x1d0 build/py/scope.o
 .debug_ranges  0x0000000000001e90     0x2910 build/py/compile.o
 .debug_ranges  0x00000000000047a0      0x110 build/py/emitcommon.o
 .debug_ranges  0x00000000000048b0      0xa20 build/py/emitbc.o
 .debug_ranges  0x00000000000052d0       0x20 build/py/parsenumbase.o
 .debug_ranges  0x00000000000052f0       0x70 build/py/parsenum.o
 .debug_ranges  0x0000000000005360       0x50 build/py/emitglue.o
 .debug_ranges  0x00000000000053b0      0xff0 build/py/runtime.o
 .debug_ranges  0x00000000000063a0       0x60 build/py/scheduler.o
 .debug_ranges  0x0000000000006400      0x130 build/py/argcheck.o
 .debug_ranges  0x0000000000006530      0x1a0 build/py/map.o
 .debug_ranges  0x00000000000066d0      0x3b0 build/py/obj.o
 .debug_ranges  0x0000000000006a80       0xe0 build/py/objbool.o
 .debug_ranges  0x0000000000006b60       0x40 build/py/objboundmeth.o
 .debug_ranges  0x0000000000006ba0       0x20 build/py/objcell.o
 .debug_ranges  0x0000000000006bc0       0x80 build/py/objclosure.o
 .debug_ranges  0x0000000000006c40      0x610 build/py/objdict.o
 .debug_ranges  0x0000000000007250      0x240 build/py/objexcept.o
 .debug_ranges  0x0000000000007490      0x200 build/py/objfun.o
 .debug_ranges  0x0000000000007690      0x180 build/py/objgenerator.o
 .debug_ranges  0x0000000000007810       0x30 build/py/objgetitemiter.o
 .debug_ranges  0x0000000000007840      0x2b0 build/py/objint.o
 .debug_ranges  0x0000000000007af0      0x410 build/py/objlist.o
 .debug_ranges  0x0000000000007f00      0x130 build/py/objmap.o
 .debug_ranges  0x0000000000008030      0x100 build/py/objmodule.o
 .debug_ranges  0x0000000000008130       0x20 build/py/objobject.o
 .debug_ranges  0x0000000000008150       0x20 build/py/objpolyiter.o
 .debug_ranges  0x0000000000008170       0x20 build/py/objnone.o
 .debug_ranges  0x0000000000008190      0x150 build/py/objrange.o
 .debug_ranges  0x00000000000082e0       0x20 build/py/objsingleton.o
 .debug_ranges  0x0000000000008300     0x10f0 build/py/objstr.o
 .debug_ranges  0x00000000000093f0      0x2e0 build/py/objtuple.o
 .debug_ranges  0x00000000000096d0      0x610 build/py/objtype.o
 .debug_ranges  0x0000000000009ce0      0x150 build/py/objzip.o
 .debug_ranges  0x0000000000009e30       0x50 build/py/opmethods.o
 .debug_ranges  0x0000000000009e80      0x1b0 build/py/sequence.o
 .debug_ranges  0x000000000000a030      0x210 build/py/stream.o
 .debug_ranges  0x000000000000a240      0x100 build/py/binary.o
 .debug_ranges  0x000000000000a340      0x1c0 build/py/builtinimport.o
 .debug_ranges  0x000000000000a500       0xf0 build/py/builtinevex.o
 .debug_ranges  0x000000000000a5f0      0x3c0 build/py/modbuiltins.o
 .debug_ranges  0x000000000000a9b0      0x950 build/py/vm.o
 .debug_ranges  0x000000000000b300      0x650 build/py/bc.o
 .debug_ranges  0x000000000000b950      0x340 build/py/repl.o
 .debug_ranges  0x000000000000bc90       0x40 build/py/smallint.o
 .debug_ranges  0x000000000000bcd0       0xb0 build/py/frozenmod.o
 .debug_ranges  0x000000000000bd80       0x80 build/main.o
 .debug_ranges  0x000000000000be00       0x30 build/uart_core.o
 .debug_ranges  0x000000000000be30       0x80 build/shared/libc/printf.o
 .debug_ranges  0x000000000000beb0      0x130 build/shared/readline/readline.o
 .debug_ranges  0x000000000000bfe0      0x490 build/shared/runtime/pyexec.o
 .debug_ranges  0x000000000000c470       0x30 build/shared/runtime/stdout_helpers.o
 .debug_ranges  0x000000000000c4a0       0x30 ../../../../build/lib/libc/libc.a(crt1.c.obj)

Cross Reference Table

Symbol                                            File
_Exit                                             ../../../../build/lib/libc/libc.a(_Exit.c.obj)
                                                  ../../../../build/lib/libc/libc.a(exit.c.obj)
___environ                                        ../../../../build/lib/libc/libc.a(__environ.c.obj)
__bss_end                                         ../../../../build/lib/libc/libc.a(crt1.c.obj)
__bss_start                                       ../../../../build/lib/libc/libc.a(crt1.c.obj)
__entryC                                          ../../../../build/lib/libc/libc.a(crt1.c.obj)
                                                  ../../../../build/lib/libc/libc.a(crt0.S.obj)
__environ                                         ../../../../build/lib/libc/libc.a(__environ.c.obj)
                                                  ../../../../build/lib/libc/libc.a(crt1.c.obj)
__fatal_error                                     build/main.o
__fini_array_end                                  ../../../../build/lib/libc/libc.a(exit.c.obj)
__fini_array_start                                ../../../../build/lib/libc/libc.a(exit.c.obj)
__funcs_on_exit                                   ../../../../build/lib/libc/libc.a(exit.c.obj)
__get_handler_set                                 ../../../../build/lib/libc/libc.a(sigaction.c.obj)
__libc_exit_fini                                  ../../../../build/lib/libc/libc.a(exit.c.obj)
__libc_sigaction                                  ../../../../build/lib/libc/libc.a(sigaction.c.obj)
__restore                                         ../../../../build/lib/libc/libc.a(sigaction.c.obj)
__restore_rt                                      ../../../../build/lib/libc/libc.a(sigaction.c.obj)
__sigaction                                       ../../../../build/lib/libc/libc.a(sigaction.c.obj)
__start                                           ../../../../build/lib/libc/libc.a(crt0.S.obj)
__stdio_exit                                      ../../../../build/lib/libc/libc.a(exit.c.obj)
__strchrnul                                       ../../../../build/lib/libc/libc.a(strchrnul.c.obj)
                                                  ../../../../build/lib/libc/libc.a(strchr.c.obj)
_environ                                          ../../../../build/lib/libc/libc.a(__environ.c.obj)
_fini                                             ../../../../build/lib/libc/libc.a(exit.c.obj)
do_str                                            build/main.o
emit_bc_free                                      build/py/emitbc.o
                                                  build/py/compile.o
emit_bc_new                                       build/py/emitbc.o
                                                  build/py/compile.o
emit_bc_set_max_num_labels                        build/py/emitbc.o
                                                  build/py/compile.o
environ                                           ../../../../build/lib/libc/libc.a(__environ.c.obj)
errno                                             ../../../../build/lib/libc/libc.a(crt0.S.obj)
                                                  ../../../../build/lib/libc/libc.a(sigaction.c.obj)
                                                  ../../../../build/lib/libc/libc.a(crt1.c.obj)
exit                                              ../../../../build/lib/libc/libc.a(exit.c.obj)
                                                  ../../../../build/lib/libc/libc.a(crt1.c.obj)
                                                  ../../../../build/lib/libc/libc.a(crt0.S.obj)
find_subbytes                                     build/py/objstr.o
finish_child                                      ../../../../build/lib/libc/libc.a(crt1.c.obj)
gc_alloc                                          build/py/gc.o
                                                  build/py/malloc.o
gc_collect                                        build/main.o
                                                  build/py/gc.o
gc_collect_end                                    build/py/gc.o
                                                  build/main.o
gc_collect_root                                   build/py/gc.o
                                                  build/main.o
gc_collect_start                                  build/py/gc.o
                                                  build/main.o
gc_dump_alloc_table                               build/py/gc.o
gc_dump_info                                      build/py/gc.o
                                                  build/main.o
gc_free                                           build/py/gc.o
                                                  build/py/malloc.o
gc_info                                           build/py/gc.o
gc_init                                           build/py/gc.o
                                                  build/main.o
gc_is_locked                                      build/py/gc.o
                                                  build/py/runtime.o
gc_lock                                           build/py/gc.o
gc_nbytes                                         build/py/gc.o
                                                  build/py/qstr.o
gc_realloc                                        build/py/gc.o
                                                  build/py/malloc.o
gc_sweep_all                                      build/py/gc.o
gc_unlock                                         build/py/gc.o
getpid                                            ../../../../build/lib/libc/libc.a(getpid.c.obj)
                                                  ../../../../build/lib/libc/libc.a(crt1.c.obj)
m_free                                            build/py/malloc.o
                                                  build/py/objtype.o
                                                  build/py/objtuple.o
                                                  build/py/objmap.o
                                                  build/py/objint.o
                                                  build/py/objfun.o
                                                  build/py/objclosure.o
                                                  build/py/objboundmeth.o
                                                  build/py/map.o
                                                  build/py/runtime.o
                                                  build/py/emitbc.o
                                                  build/py/scope.o
                                                  build/py/parse.o
                                                  build/py/lexer.o
                                                  build/py/reader.o
                                                  build/py/mpprint.o
                                                  build/py/vstr.o
m_malloc                                          build/py/malloc.o
                                                  build/shared/runtime/pyexec.o
                                                  build/py/objtype.o
                                                  build/py/objtuple.o
                                                  build/py/objstr.o
                                                  build/py/objmodule.o
                                                  build/py/objmap.o
                                                  build/py/objlist.o
                                                  build/py/objint.o
                                                  build/py/objdict.o
                                                  build/py/objclosure.o
                                                  build/py/obj.o
                                                  build/py/runtime.o
                                                  build/py/emitbc.o
                                                  build/py/compile.o
                                                  build/py/scope.o
                                                  build/py/parse.o
                                                  build/py/lexer.o
                                                  build/py/reader.o
                                                  build/py/vstr.o
m_malloc0                                         build/py/malloc.o
                                                  build/py/objtype.o
                                                  build/py/map.o
                                                  build/py/emitglue.o
                                                  build/py/emitbc.o
                                                  build/py/compile.o
                                                  build/py/scope.o
m_malloc_fail                                     build/py/runtime.o
                                                  build/py/qstr.o
                                                  build/py/malloc.o
m_malloc_maybe                                    build/py/malloc.o
                                                  build/shared/readline/readline.o
                                                  build/py/objfun.o
                                                  build/py/objexcept.o
                                                  build/py/objboundmeth.o
                                                  build/py/qstr.o
m_realloc                                         build/py/malloc.o
                                                  build/py/objtuple.o
                                                  build/py/objstr.o
                                                  build/py/objlist.o
                                                  build/py/runtime.o
                                                  build/py/scope.o
                                                  build/py/parse.o
                                                  build/py/lexer.o
                                                  build/py/vstr.o
m_realloc_maybe                                   build/py/malloc.o
                                                  build/py/objexcept.o
                                                  build/py/parse.o
                                                  build/py/qstr.o
main                                              build/main.o
                                                  ../../../../build/lib/libc/libc.a(crt1.c.obj)
memcmp                                            ../../../../build/lib/libc/libc.a(memcmp.c.obj)
                                                  build/py/frozenmod.o
                                                  build/py/repl.o
                                                  build/py/sequence.o
                                                  build/py/objstr.o
                                                  build/py/qstr.o
memcpy                                            ../../../../build/lib/libc/libc.a(memcpy.c.obj)
                                                  ../../../../build/lib/libc/libc.a(sigaction.c.obj)
                                                  ../../../../build/lib/libc/libc.a(memmove.c.obj)
                                                  build/shared/readline/readline.o
                                                  build/shared/libc/printf.o
                                                  build/py/builtinimport.o
                                                  build/py/binary.o
                                                  build/py/sequence.o
                                                  build/py/objtype.o
                                                  build/py/objtuple.o
                                                  build/py/objstr.o
                                                  build/py/objlist.o
                                                  build/py/objfun.o
                                                  build/py/objexcept.o
                                                  build/py/objdict.o
                                                  build/py/objclosure.o
                                                  build/py/objboundmeth.o
                                                  build/py/ringbuf.o
                                                  build/py/runtime.o
                                                  build/py/compile.o
                                                  build/py/qstr.o
                                                  build/py/gc.o
memmove                                           ../../../../build/lib/libc/libc.a(memmove.c.obj)
                                                  build/shared/readline/readline.o
                                                  build/py/objstr.o
                                                  build/py/objlist.o
                                                  build/py/vstr.o
memset                                            ../../../../build/lib/libc/libc.a(memset.c.obj)
                                                  ../../../../build/lib/libc/libc.a(crt1.c.obj)
                                                  build/py/bc.o
                                                  build/py/objstr.o
                                                  build/py/objlist.o
                                                  build/py/objint.o
                                                  build/py/compile.o
                                                  build/py/gc.o
mp_arg_check_num_sig                              build/py/argcheck.o
                                                  build/py/objzip.o
                                                  build/py/objtype.o
                                                  build/py/objtuple.o
                                                  build/py/objstr.o
                                                  build/py/objrange.o
                                                  build/py/objobject.o
                                                  build/py/objmap.o
                                                  build/py/objlist.o
                                                  build/py/objint.o
                                                  build/py/objfun.o
                                                  build/py/objexcept.o
                                                  build/py/objdict.o
                                                  build/py/objbool.o
mp_arg_error_terse_mismatch                       build/py/argcheck.o
                                                  build/py/bc.o
mp_arg_parse_all                                  build/py/argcheck.o
                                                  build/py/modbuiltins.o
                                                  build/py/objlist.o
mp_arg_parse_all_kw_array                         build/py/argcheck.o
mp_binary_get_int                                 build/py/binary.o
mp_binary_get_size                                build/py/binary.o
mp_binary_get_val                                 build/py/binary.o
mp_binary_get_val_array                           build/py/binary.o
mp_binary_op                                      build/py/runtime.o
                                                  build/py/vm.o
                                                  build/py/modbuiltins.o
                                                  build/py/sequence.o
                                                  build/py/objtype.o
                                                  build/py/objlist.o
                                                  build/py/objint.o
                                                  build/py/objbool.o
mp_binary_op_method_name                          build/py/objtype.o
mp_binary_set_int                                 build/py/binary.o
                                                  build/py/objint.o
mp_binary_set_val                                 build/py/binary.o
mp_binary_set_val_array                           build/py/binary.o
mp_binary_set_val_array_from_int                  build/py/binary.o
mp_builtin___build_class___obj                    build/py/modbuiltins.o
                                                  build/py/runtime.o
mp_builtin___import___default                     build/py/builtinimport.o
                                                  build/py/runtime.o
mp_builtin___import___obj                         build/py/builtinimport.o
                                                  build/py/modbuiltins.o
mp_builtin___repl_print___obj                     build/py/modbuiltins.o
mp_builtin_abs_obj                                build/py/modbuiltins.o
mp_builtin_all_obj                                build/py/modbuiltins.o
mp_builtin_any_obj                                build/py/modbuiltins.o
mp_builtin_bin_obj                                build/py/modbuiltins.o
mp_builtin_callable_obj                           build/py/modbuiltins.o
mp_builtin_chr_obj                                build/py/modbuiltins.o
mp_builtin_dir_obj                                build/py/modbuiltins.o
mp_builtin_divmod_obj                             build/py/modbuiltins.o
mp_builtin_eval_obj                               build/py/builtinevex.o
                                                  build/py/modbuiltins.o
mp_builtin_exec_obj                               build/py/builtinevex.o
                                                  build/py/modbuiltins.o
mp_builtin_extensible_module_map                  build/py/objmodule.o
                                                  build/py/repl.o
mp_builtin_getattr_obj                            build/py/modbuiltins.o
mp_builtin_globals_obj                            build/py/modbuiltins.o
mp_builtin_hasattr_obj                            build/py/modbuiltins.o
mp_builtin_hash_obj                               build/py/modbuiltins.o
mp_builtin_hex_obj                                build/py/modbuiltins.o
mp_builtin_id_obj                                 build/py/modbuiltins.o
mp_builtin_isinstance_obj                         build/py/objtype.o
                                                  build/py/modbuiltins.o
mp_builtin_issubclass_obj                         build/py/objtype.o
                                                  build/py/modbuiltins.o
mp_builtin_iter_obj                               build/py/modbuiltins.o
mp_builtin_len_obj                                build/py/modbuiltins.o
mp_builtin_locals_obj                             build/py/modbuiltins.o
mp_builtin_module_map                             build/py/objmodule.o
                                                  build/py/repl.o
mp_builtin_next_obj                               build/py/modbuiltins.o
                                                  build/py/runtime.o
mp_builtin_oct_obj                                build/py/modbuiltins.o
mp_builtin_ord_obj                                build/py/modbuiltins.o
mp_builtin_pow_obj                                build/py/modbuiltins.o
mp_builtin_print_obj                              build/py/modbuiltins.o
mp_builtin_repr_obj                               build/py/modbuiltins.o
mp_builtin_round_obj                              build/py/modbuiltins.o
mp_builtin_setattr_obj                            build/py/modbuiltins.o
mp_builtin_sorted_obj                             build/py/modbuiltins.o
mp_builtin_sum_obj                                build/py/modbuiltins.o
mp_call_function_0                                build/py/runtime.o
                                                  build/shared/runtime/pyexec.o
                                                  build/main.o
                                                  build/py/modbuiltins.o
                                                  build/py/builtinimport.o
mp_call_function_1                                build/py/runtime.o
                                                  build/py/objtype.o
                                                  build/py/objlist.o
                                                  build/py/runtime_utils.o
mp_call_function_1_protected                      build/py/runtime_utils.o
mp_call_function_2                                build/py/runtime.o
                                                  build/py/runtime_utils.o
mp_call_function_2_protected                      build/py/runtime_utils.o
mp_call_function_n_kw                             build/py/runtime.o
                                                  build/py/vm.o
                                                  build/py/modbuiltins.o
                                                  build/py/objtype.o
                                                  build/py/objmap.o
                                                  build/py/objclosure.o
                                                  build/py/objboundmeth.o
mp_call_method_n_kw                               build/py/runtime.o
                                                  build/py/vm.o
                                                  build/py/objtype.o
                                                  build/py/objgetitemiter.o
mp_call_method_n_kw_var                           build/py/runtime.o
                                                  build/py/vm.o
mp_call_method_self_n_kw                          build/py/objboundmeth.o
                                                  build/py/objtype.o
mp_compile                                        build/py/compile.o
                                                  build/shared/runtime/pyexec.o
                                                  build/main.o
                                                  build/py/runtime.o
mp_const_GeneratorExit_obj                        build/py/objgenerator.o
                                                  build/py/vm.o
mp_const_ellipsis_obj                             build/py/objsingleton.o
                                                  build/py/modbuiltins.o
                                                  build/py/emitbc.o
mp_const_empty_bytes_obj                          build/py/objstr.o
mp_const_empty_dict_obj                           build/py/objdict.o
mp_const_empty_tuple_obj                          build/py/objtuple.o
                                                  build/py/bc.o
                                                  build/py/objgenerator.o
                                                  build/py/objexcept.o
mp_convert_member_lookup                          build/py/runtime.o
                                                  build/py/objtype.o
mp_decode_uint                                    build/py/bc.o
mp_decode_uint_skip                               build/py/bc.o
                                                  build/py/vm.o
mp_decode_uint_value                              build/py/bc.o
                                                  build/py/vm.o
                                                  build/py/objfun.o
mp_decompress_rom_string                          build/py/qstr.o
                                                  build/py/objexcept.o
mp_deinit                                         build/py/runtime.o
                                                  build/main.o
mp_delete_global                                  build/py/runtime.o
                                                  build/py/vm.o
mp_delete_name                                    build/py/runtime.o
                                                  build/py/vm.o
mp_emit_bc_adjust_stack_size                      build/py/emitbc.o
                                                  build/py/compile.o
mp_emit_bc_attr                                   build/py/emitbc.o
                                                  build/py/compile.o
mp_emit_bc_binary_op                              build/py/emitbc.o
                                                  build/py/compile.o
mp_emit_bc_build                                  build/py/emitbc.o
                                                  build/py/compile.o
mp_emit_bc_call_function                          build/py/emitbc.o
                                                  build/py/compile.o
mp_emit_bc_call_method                            build/py/emitbc.o
                                                  build/py/compile.o
mp_emit_bc_delete_global                          build/py/emitbc.o
mp_emit_bc_delete_local                           build/py/emitbc.o
mp_emit_bc_dup_top                                build/py/emitbc.o
                                                  build/py/compile.o
mp_emit_bc_dup_top_two                            build/py/emitbc.o
                                                  build/py/compile.o
mp_emit_bc_end_except_handler                     build/py/emitbc.o
                                                  build/py/compile.o
mp_emit_bc_end_finally                            build/py/emitbc.o
                                                  build/py/compile.o
mp_emit_bc_end_pass                               build/py/emitbc.o
                                                  build/py/compile.o
mp_emit_bc_for_iter                               build/py/emitbc.o
                                                  build/py/compile.o
mp_emit_bc_for_iter_end                           build/py/emitbc.o
                                                  build/py/compile.o
mp_emit_bc_get_iter                               build/py/emitbc.o
                                                  build/py/compile.o
mp_emit_bc_import                                 build/py/emitbc.o
                                                  build/py/compile.o
mp_emit_bc_jump                                   build/py/emitbc.o
                                                  build/py/compile.o
mp_emit_bc_jump_if_or_pop                         build/py/emitbc.o
                                                  build/py/compile.o
mp_emit_bc_label_assign                           build/py/emitbc.o
                                                  build/py/compile.o
mp_emit_bc_load_build_class                       build/py/emitbc.o
                                                  build/py/compile.o
mp_emit_bc_load_const_obj                         build/py/emitbc.o
                                                  build/py/compile.o
mp_emit_bc_load_const_small_int                   build/py/emitbc.o
                                                  build/py/compile.o
mp_emit_bc_load_const_str                         build/py/emitbc.o
                                                  build/py/compile.o
mp_emit_bc_load_const_tok                         build/py/emitbc.o
                                                  build/py/compile.o
mp_emit_bc_load_global                            build/py/emitbc.o
                                                  build/py/compile.o
mp_emit_bc_load_local                             build/py/emitbc.o
                                                  build/py/compile.o
mp_emit_bc_load_method                            build/py/emitbc.o
                                                  build/py/compile.o
mp_emit_bc_load_null                              build/py/emitbc.o
                                                  build/py/compile.o
mp_emit_bc_make_closure                           build/py/emitbc.o
                                                  build/py/compile.o
mp_emit_bc_make_function                          build/py/emitbc.o
                                                  build/py/compile.o
mp_emit_bc_method_table_delete_id_ops             build/py/emitbc.o
                                                  build/py/compile.o
mp_emit_bc_method_table_load_id_ops               build/py/emitbc.o
                                                  build/py/compile.o
mp_emit_bc_method_table_store_id_ops              build/py/emitbc.o
                                                  build/py/compile.o
mp_emit_bc_pop_except_jump                        build/py/emitbc.o
                                                  build/py/compile.o
mp_emit_bc_pop_jump_if                            build/py/emitbc.o
                                                  build/py/compile.o
mp_emit_bc_pop_top                                build/py/emitbc.o
                                                  build/py/compile.o
mp_emit_bc_raise_varargs                          build/py/emitbc.o
                                                  build/py/compile.o
mp_emit_bc_return_value                           build/py/emitbc.o
                                                  build/py/compile.o
mp_emit_bc_rot_three                              build/py/emitbc.o
                                                  build/py/compile.o
mp_emit_bc_rot_two                                build/py/emitbc.o
                                                  build/py/compile.o
mp_emit_bc_set_source_line                        build/py/emitbc.o
                                                  build/py/compile.o
mp_emit_bc_setup_block                            build/py/emitbc.o
                                                  build/py/compile.o
mp_emit_bc_start_except_handler                   build/py/emitbc.o
                                                  build/py/compile.o
mp_emit_bc_start_pass                             build/py/emitbc.o
                                                  build/py/compile.o
mp_emit_bc_store_comp                             build/py/emitbc.o
                                                  build/py/compile.o
mp_emit_bc_store_global                           build/py/emitbc.o
mp_emit_bc_store_local                            build/py/emitbc.o
mp_emit_bc_store_map                              build/py/emitbc.o
                                                  build/py/compile.o
mp_emit_bc_subscr                                 build/py/emitbc.o
                                                  build/py/compile.o
mp_emit_bc_unary_op                               build/py/emitbc.o
                                                  build/py/compile.o
mp_emit_bc_unpack_ex                              build/py/emitbc.o
                                                  build/py/compile.o
mp_emit_bc_unpack_sequence                        build/py/emitbc.o
                                                  build/py/compile.o
mp_emit_bc_unwind_jump                            build/py/emitbc.o
                                                  build/py/compile.o
mp_emit_bc_with_cleanup                           build/py/emitbc.o
                                                  build/py/compile.o
mp_emit_bc_yield                                  build/py/emitbc.o
                                                  build/py/compile.o
mp_emit_common_get_id_for_modification            build/py/emitcommon.o
                                                  build/py/compile.o
mp_emit_common_id_op                              build/py/emitcommon.o
                                                  build/py/compile.o
mp_emit_common_use_const_obj                      build/py/emitcommon.o
                                                  build/py/emitbc.o
mp_emit_common_use_qstr                           build/py/emitcommon.o
                                                  build/py/emitbc.o
mp_emit_glue_assign_bytecode                      build/py/emitglue.o
                                                  build/py/emitbc.o
mp_emit_glue_new_raw_code                         build/py/emitglue.o
                                                  build/py/scope.o
mp_encode_uint                                    build/py/bc.o
                                                  build/py/emitbc.o
mp_execute_bytecode                               build/py/vm.o
                                                  build/py/objgenerator.o
                                                  build/py/objfun.o
mp_find_frozen_module                             build/py/frozenmod.o
                                                  build/shared/runtime/pyexec.o
                                                  build/py/builtinimport.o
mp_frozen_mpy_content                             build/build/_frozen_mpy.o
                                                  build/py/frozenmod.o
mp_frozen_names                                   build/build/_frozen_mpy.o
                                                  build/py/frozenmod.o
mp_get_buffer                                     build/py/obj.o
                                                  build/py/stream.o
                                                  build/py/objstr.o
                                                  build/py/objint.o
mp_get_buffer_raise                               build/py/obj.o
                                                  build/py/builtinevex.o
                                                  build/py/stream.o
                                                  build/py/objstr.o
                                                  build/py/objint.o
mp_get_index                                      build/py/obj.o
                                                  build/py/sequence.o
                                                  build/py/objtuple.o
                                                  build/py/objstr.o
                                                  build/py/objrange.o
                                                  build/py/objlist.o
mp_get_stream_raise                               build/py/stream.o
mp_getiter                                        build/py/runtime.o
                                                  build/py/vm.o
                                                  build/py/modbuiltins.o
                                                  build/py/objzip.o
                                                  build/py/objtuple.o
                                                  build/py/objstr.o
                                                  build/py/objmap.o
                                                  build/py/objlist.o
                                                  build/py/objdict.o
mp_globals_locals_set_from_nlr_jump_callback      build/py/runtime.o
                                                  build/py/builtinimport.o
mp_hal_stdin_rx_chr                               build/uart_core.o
                                                  build/shared/runtime/pyexec.o
                                                  build/shared/readline/readline.o
mp_hal_stdout_tx_str                              build/shared/runtime/stdout_helpers.o
                                                  build/shared/runtime/pyexec.o
                                                  build/shared/readline/readline.o
mp_hal_stdout_tx_strn                             build/uart_core.o
                                                  build/shared/runtime/stdout_helpers.o
                                                  build/shared/runtime/pyexec.o
                                                  build/shared/readline/readline.o
mp_hal_stdout_tx_strn_cooked                      build/shared/runtime/stdout_helpers.o
                                                  build/py/mpprint.o
mp_handle_pending                                 build/py/scheduler.o
                                                  build/shared/runtime/pyexec.o
                                                  build/py/vm.o
mp_identity                                       build/py/obj.o
mp_identity_obj                                   build/py/obj.o
mp_import_all                                     build/py/runtime.o
                                                  build/py/vm.o
mp_import_from                                    build/py/runtime.o
                                                  build/py/vm.o
mp_import_name                                    build/py/runtime.o
                                                  build/py/vm.o
mp_import_stat                                    build/main.o
                                                  build/shared/runtime/pyexec.o
                                                  build/py/builtinimport.o
mp_init                                           build/py/runtime.o
                                                  build/main.o
mp_int_format_size                                build/py/objint.o
mp_iternext                                       build/py/runtime.o
                                                  build/py/modbuiltins.o
                                                  build/py/objzip.o
                                                  build/py/objtuple.o
                                                  build/py/objstr.o
                                                  build/py/objmap.o
                                                  build/py/objlist.o
                                                  build/py/objdict.o
mp_iternext_allow_raise                           build/py/runtime.o
                                                  build/py/vm.o
                                                  build/py/modbuiltins.o
mp_lexer_free                                     build/py/lexer.o
                                                  build/py/parse.o
mp_lexer_new                                      build/py/lexer.o
                                                  build/shared/runtime/pyexec.o
mp_lexer_new_from_file                            build/main.o
                                                  build/shared/runtime/pyexec.o
                                                  build/py/builtinimport.o
mp_lexer_new_from_str_len                         build/py/lexer.o
                                                  build/shared/runtime/pyexec.o
                                                  build/main.o
                                                  build/py/builtinevex.o
mp_lexer_to_next                                  build/py/lexer.o
                                                  build/py/parse.o
mp_load_attr                                      build/py/runtime.o
                                                  build/py/vm.o
mp_load_build_class                               build/py/runtime.o
                                                  build/py/vm.o
mp_load_global                                    build/py/runtime.o
                                                  build/py/vm.o
mp_load_method                                    build/py/runtime.o
                                                  build/py/vm.o
                                                  build/py/modbuiltins.o
                                                  build/py/objtype.o
mp_load_method_maybe                              build/py/runtime.o
                                                  build/py/builtinimport.o
                                                  build/py/objtype.o
mp_load_method_protected                          build/py/runtime.o
                                                  build/py/repl.o
                                                  build/py/modbuiltins.o
mp_load_name                                      build/py/runtime.o
                                                  build/py/vm.o
mp_load_super_method                              build/py/objtype.o
                                                  build/py/vm.o
mp_make_closure_from_raw_code                     build/py/emitglue.o
                                                  build/py/vm.o
mp_make_function_from_raw_code                    build/py/emitglue.o
                                                  build/shared/runtime/pyexec.o
                                                  build/py/vm.o
                                                  build/py/builtinimport.o
                                                  build/py/compile.o
mp_make_raise_obj                                 build/py/runtime.o
                                                  build/py/vm.o
mp_map_clear                                      build/py/map.o
                                                  build/py/objdict.o
mp_map_deinit                                     build/py/map.o
mp_map_init                                       build/py/map.o
                                                  build/py/objtype.o
                                                  build/py/objdict.o
                                                  build/py/compile.o
mp_map_init_fixed_table                           build/py/map.o
                                                  build/py/objfun.o
                                                  build/py/objdict.o
                                                  build/py/argcheck.o
mp_map_lookup                                     build/py/map.o
                                                  build/py/repl.o
                                                  build/py/bc.o
                                                  build/py/builtinimport.o
                                                  build/py/objtype.o
                                                  build/py/objstr.o
                                                  build/py/objmodule.o
                                                  build/py/objdict.o
                                                  build/py/argcheck.o
                                                  build/py/runtime.o
                                                  build/py/emitcommon.o
                                                  build/py/compile.o
mp_module___main__                                build/py/runtime.o
                                                  build/py/repl.o
                                                  build/py/objmodule.o
mp_module_builtins                                build/py/modbuiltins.o
                                                  build/py/objmodule.o
mp_module_builtins_globals                        build/py/modbuiltins.o
                                                  build/py/runtime.o
mp_module_generic_attr                            build/py/objmodule.o
mp_module_get_builtin                             build/py/objmodule.o
                                                  build/py/builtinimport.o
mp_obj_cast_to_native_base                        build/py/objtype.o
                                                  build/py/objtuple.o
mp_obj_dict_copy                                  build/py/objdict.o
mp_obj_dict_delete                                build/py/objdict.o
                                                  build/py/objmodule.o
                                                  build/py/runtime.o
mp_obj_dict_get                                   build/py/objdict.o
                                                  build/py/builtinimport.o
mp_obj_dict_init                                  build/py/objdict.o
                                                  build/py/runtime.o
mp_obj_dict_len                                   build/py/objdict.o
                                                  build/py/runtime.o
mp_obj_dict_make_new                              build/py/objdict.o
mp_obj_dict_store                                 build/py/objdict.o
                                                  build/py/vm.o
                                                  build/py/objmodule.o
                                                  build/py/runtime.o
mp_obj_equal                                      build/py/obj.o
                                                  build/py/sequence.o
                                                  build/py/objdict.o
                                                  build/py/map.o
                                                  build/py/runtime.o
                                                  build/py/emitcommon.o
mp_obj_equal_not_equal                            build/py/obj.o
                                                  build/py/runtime.o
mp_obj_exception_add_traceback                    build/py/objexcept.o
                                                  build/py/vm.o
                                                  build/py/parsenum.o
                                                  build/py/compile.o
                                                  build/py/parse.o
mp_obj_exception_attr                             build/py/objexcept.o
mp_obj_exception_clear_traceback                  build/py/objexcept.o
mp_obj_exception_get_traceback                    build/py/objexcept.o
                                                  build/py/obj.o
mp_obj_exception_get_value                        build/py/objexcept.o
                                                  build/py/vm.o
                                                  build/py/runtime.o
mp_obj_exception_make_new                         build/py/objexcept.o
                                                  build/py/runtime.o
mp_obj_exception_match                            build/py/objexcept.o
                                                  build/py/vm.o
                                                  build/py/runtime.o
mp_obj_exception_print                            build/py/objexcept.o
mp_obj_fun_get_name                               build/py/objfun.o
                                                  build/py/objgenerator.o
mp_obj_gen_resume                                 build/py/objgenerator.o
                                                  build/py/runtime.o
mp_obj_get_array                                  build/py/obj.o
                                                  build/py/objstr.o
                                                  build/py/runtime.o
mp_obj_get_array_fixed_n                          build/py/obj.o
mp_obj_get_int                                    build/py/obj.o
                                                  build/py/modbuiltins.o
                                                  build/py/binary.o
                                                  build/py/stream.o
                                                  build/py/objstr.o
                                                  build/py/objrange.o
                                                  build/py/objint.o
                                                  build/py/argcheck.o
                                                  build/py/runtime.o
                                                  build/py/mpprint.o
mp_obj_get_int_maybe                              build/py/obj.o
                                                  build/py/objtuple.o
                                                  build/py/objstr.o
                                                  build/py/objlist.o
mp_obj_get_int_truncated                          build/py/obj.o
                                                  build/py/stream.o
                                                  build/py/objtype.o
mp_obj_get_type                                   build/py/obj.o
                                                  build/py/vm.o
                                                  build/py/modbuiltins.o
                                                  build/py/stream.o
                                                  build/py/sequence.o
                                                  build/py/opmethods.o
                                                  build/py/objtype.o
                                                  build/py/objtuple.o
                                                  build/py/objstr.o
                                                  build/py/objgenerator.o
                                                  build/py/objexcept.o
                                                  build/py/runtime.o
                                                  build/py/emitcommon.o
mp_obj_get_type_str                               build/py/obj.o
                                                  build/py/objtype.o
mp_obj_id                                         build/py/obj.o
                                                  build/py/modbuiltins.o
mp_obj_instance_call                              build/py/objtype.o
                                                  build/py/obj.o
mp_obj_instance_getiter                           build/py/objtype.o
                                                  build/py/runtime.o
mp_obj_instance_is_callable                       build/py/objtype.o
                                                  build/py/obj.o
mp_obj_int_binary_op                              build/py/objint.o
mp_obj_int_binary_op_extra_cases                  build/py/objint.o
mp_obj_int_formatted                              build/py/objint.o
                                                  build/py/mpprint.o
mp_obj_int_get_checked                            build/py/objint.o
                                                  build/py/obj.o
mp_obj_int_get_truncated                          build/py/objint.o
                                                  build/py/obj.o
mp_obj_int_print                                  build/py/objint.o
mp_obj_int_sign                                   build/py/objint.o
                                                  build/py/mpprint.o
mp_obj_int_unary_op                               build/py/objint.o
mp_obj_is_callable                                build/py/obj.o
                                                  build/py/modbuiltins.o
mp_obj_is_dict_or_ordereddict                     build/py/objdict.o
                                                  build/py/objtype.o
mp_obj_is_exception_instance                      build/py/objexcept.o
                                                  build/py/obj.o
                                                  build/py/runtime.o
mp_obj_is_exception_type                          build/py/objexcept.o
                                                  build/py/runtime.o
mp_obj_is_native_exception_instance               build/py/objexcept.o
                                                  build/py/objtype.o
mp_obj_is_subclass_fast                           build/py/objtype.o
                                                  build/shared/runtime/pyexec.o
                                                  build/py/vm.o
                                                  build/py/objtuple.o
                                                  build/py/objgenerator.o
                                                  build/py/objexcept.o
                                                  build/py/runtime.o
mp_obj_is_true                                    build/py/obj.o
                                                  build/py/vm.o
                                                  build/py/modbuiltins.o
                                                  build/py/stream.o
                                                  build/py/objtype.o
                                                  build/py/objbool.o
                                                  build/py/argcheck.o
                                                  build/py/runtime.o
mp_obj_len                                        build/py/obj.o
                                                  build/py/modbuiltins.o
mp_obj_len_maybe                                  build/py/obj.o
                                                  build/py/objstr.o
                                                  build/py/runtime.o
mp_obj_list_append                                build/py/objlist.o
                                                  build/py/vm.o
                                                  build/py/modbuiltins.o
                                                  build/py/stream.o
                                                  build/py/sequence.o
                                                  build/py/objstr.o
                                                  build/py/runtime.o
                                                  build/py/emitcommon.o
mp_obj_list_get                                   build/py/objlist.o
                                                  build/py/obj.o
mp_obj_list_init                                  build/py/objlist.o
                                                  build/py/compile.o
mp_obj_list_make_new                              build/py/objlist.o
                                                  build/py/modbuiltins.o
                                                  build/py/objstr.o
mp_obj_list_remove                                build/py/objlist.o
mp_obj_list_set_len                               build/py/objlist.o
                                                  build/py/runtime.o
mp_obj_list_sort                                  build/py/objlist.o
                                                  build/py/modbuiltins.o
mp_obj_list_store                                 build/py/objlist.o
mp_obj_malloc_helper                              build/py/obj.o
                                                  build/py/objzip.o
                                                  build/py/objtype.o
                                                  build/py/objtuple.o
                                                  build/py/objstr.o
                                                  build/py/objrange.o
                                                  build/py/objobject.o
                                                  build/py/objmap.o
                                                  build/py/objgenerator.o
                                                  build/py/objfun.o
                                                  build/py/objdict.o
                                                  build/py/objclosure.o
                                                  build/py/objcell.o
                                                  build/py/objboundmeth.o
mp_obj_new_bound_meth                             build/py/objboundmeth.o
                                                  build/py/modbuiltins.o
                                                  build/py/runtime.o
mp_obj_new_bytes                                  build/py/objstr.o
                                                  build/py/parse.o
mp_obj_new_bytes_from_vstr                        build/py/objstr.o
                                                  build/py/stream.o
                                                  build/py/objint.o
mp_obj_new_cell                                   build/py/objcell.o
                                                  build/py/bc.o
mp_obj_new_closure                                build/py/objclosure.o
                                                  build/py/emitglue.o
mp_obj_new_dict                                   build/py/objdict.o
                                                  build/py/bc.o
                                                  build/py/vm.o
                                                  build/py/modbuiltins.o
                                                  build/py/objmodule.o
mp_obj_new_exception                              build/py/objexcept.o
                                                  build/py/runtime.o
mp_obj_new_exception_args                         build/py/objexcept.o
mp_obj_new_exception_msg                          build/py/objexcept.o
                                                  build/py/vm.o
                                                  build/py/objgenerator.o
                                                  build/py/runtime.o
                                                  build/py/parsenum.o
                                                  build/py/compile.o
                                                  build/py/parse.o
mp_obj_new_exception_msg_varg                     build/py/objexcept.o
mp_obj_new_exception_msg_vlist                    build/py/objexcept.o
                                                  build/py/runtime.o
mp_obj_new_fun_bc                                 build/py/objfun.o
                                                  build/py/emitglue.o
mp_obj_new_getitem_iter                           build/py/objgetitemiter.o
                                                  build/py/runtime.o
mp_obj_new_int                                    build/py/objint.o
                                                  build/py/modbuiltins.o
                                                  build/py/binary.o
                                                  build/py/stream.o
                                                  build/py/obj.o
                                                  build/py/runtime.o
mp_obj_new_int_from_ll                            build/py/objint.o
                                                  build/py/binary.o
                                                  build/py/runtime.o
mp_obj_new_int_from_str_len                       build/py/objint.o
                                                  build/py/parsenum.o
mp_obj_new_int_from_uint                          build/py/objint.o
                                                  build/py/binary.o
                                                  build/py/stream.o
                                                  build/py/obj.o
mp_obj_new_int_from_ull                           build/py/objint.o
                                                  build/py/binary.o
mp_obj_new_list                                   build/py/objlist.o
                                                  build/py/vm.o
                                                  build/py/modbuiltins.o
                                                  build/py/stream.o
                                                  build/py/sequence.o
                                                  build/py/objstr.o
                                                  build/py/runtime.o
mp_obj_new_module                                 build/py/objmodule.o
                                                  build/py/builtinimport.o
mp_obj_new_str                                    build/py/objstr.o
                                                  build/py/builtinimport.o
                                                  build/py/binary.o
mp_obj_new_str_copy                               build/py/objstr.o
                                                  build/py/parse.o
mp_obj_new_str_from_vstr                          build/py/objstr.o
                                                  build/py/modbuiltins.o
                                                  build/py/stream.o
                                                  build/py/runtime.o
mp_obj_new_str_of_type                            build/py/objstr.o
mp_obj_new_str_via_qstr                           build/py/objstr.o
                                                  build/py/modbuiltins.o
mp_obj_new_tuple                                  build/py/objtuple.o
                                                  build/py/bc.o
                                                  build/py/vm.o
                                                  build/py/modbuiltins.o
                                                  build/py/objzip.o
                                                  build/py/objdict.o
                                                  build/py/runtime.o
mp_obj_new_type                                   build/py/objtype.o
mp_obj_print                                      build/py/obj.o
mp_obj_print_exception                            build/py/obj.o
                                                  build/shared/runtime/pyexec.o
                                                  build/main.o
                                                  build/py/runtime_utils.o
mp_obj_print_helper                               build/py/obj.o
                                                  build/py/modbuiltins.o
                                                  build/py/objtype.o
                                                  build/py/objtuple.o
                                                  build/py/objstr.o
                                                  build/py/objlist.o
                                                  build/py/objexcept.o
                                                  build/py/objdict.o
mp_obj_str_binary_op                              build/py/objstr.o
                                                  build/py/objint.o
                                                  build/py/runtime.o
mp_obj_str_equal                                  build/py/objstr.o
                                                  build/py/obj.o
mp_obj_str_format                                 build/py/objstr.o
                                                  build/py/modbuiltins.o
mp_obj_str_get_buffer                             build/py/objstr.o
mp_obj_str_get_data                               build/py/objstr.o
                                                  build/py/modbuiltins.o
                                                  build/py/builtinimport.o
                                                  build/py/objint.o
                                                  build/py/runtime.o
mp_obj_str_get_qstr                               build/py/objstr.o
                                                  build/py/modbuiltins.o
                                                  build/py/objtype.o
                                                  build/py/runtime.o
mp_obj_str_get_str                                build/py/objstr.o
                                                  build/py/builtinimport.o
                                                  build/py/objmodule.o
                                                  build/py/runtime.o
mp_obj_str_intern                                 build/py/objstr.o
mp_obj_str_intern_checked                         build/py/objstr.o
                                                  build/py/runtime.o
mp_obj_str_locals_dict                            build/py/objstr.o
mp_obj_str_make_new                               build/py/objstr.o
mp_obj_str_set_data                               build/py/objstr.o
mp_obj_str_split                                  build/py/objstr.o
mp_obj_subscr                                     build/py/obj.o
                                                  build/py/vm.o
                                                  build/py/objtype.o
mp_obj_tuple_binary_op                            build/py/objtuple.o
mp_obj_tuple_del                                  build/py/objtuple.o
                                                  build/py/objzip.o
mp_obj_tuple_get                                  build/py/objtuple.o
                                                  build/py/objtype.o
                                                  build/py/obj.o
mp_obj_tuple_getiter                              build/py/objtuple.o
mp_obj_tuple_print                                build/py/objtuple.o
                                                  build/py/objexcept.o
mp_obj_tuple_subscr                               build/py/objtuple.o
mp_obj_tuple_unary_op                             build/py/objtuple.o
mp_op_contains_obj                                build/py/opmethods.o
mp_op_delitem_obj                                 build/py/opmethods.o
                                                  build/py/objdict.o
mp_op_getitem_obj                                 build/py/opmethods.o
                                                  build/py/objdict.o
mp_op_setitem_obj                                 build/py/opmethods.o
                                                  build/py/objdict.o
mp_pairheap_delete                                build/py/pairheap.o
mp_pairheap_meld                                  build/py/pairheap.o
mp_pairheap_pairing                               build/py/pairheap.o
mp_parse                                          build/py/parse.o
                                                  build/shared/runtime/pyexec.o
                                                  build/main.o
                                                  build/py/runtime.o
mp_parse_compile_execute                          build/py/runtime.o
                                                  build/py/builtinevex.o
                                                  build/py/builtinimport.o
mp_parse_node_extract_list                        build/py/parse.o
                                                  build/py/compile.o
mp_parse_node_get_int_maybe                       build/py/parse.o
mp_parse_node_is_const_false                      build/py/parse.o
                                                  build/py/compile.o
mp_parse_node_is_const_true                       build/py/parse.o
                                                  build/py/compile.o
mp_parse_num_base                                 build/py/parsenumbase.o
                                                  build/py/parsenum.o
mp_parse_num_float                                build/py/parsenum.o
                                                  build/py/parse.o
mp_parse_num_integer                              build/py/parsenum.o
                                                  build/py/objint.o
                                                  build/py/parse.o
mp_parse_tree_clear                               build/py/parse.o
                                                  build/py/compile.o
mp_plat_print                                     build/py/mpprint.o
                                                  build/shared/runtime/pyexec.o
                                                  build/shared/readline/readline.o
                                                  build/shared/libc/printf.o
                                                  build/main.o
                                                  build/py/modbuiltins.o
                                                  build/py/obj.o
                                                  build/py/runtime_utils.o
mp_print_mp_int                                   build/py/mpprint.o
                                                  build/py/objstr.o
mp_print_str                                      build/py/mpprint.o
                                                  build/py/repl.o
                                                  build/py/modbuiltins.o
                                                  build/py/objtype.o
                                                  build/py/objtuple.o
                                                  build/py/objstr.o
                                                  build/py/objrange.o
                                                  build/py/objnone.o
                                                  build/py/objlist.o
                                                  build/py/objint.o
                                                  build/py/objexcept.o
                                                  build/py/objdict.o
                                                  build/py/objbool.o
                                                  build/py/obj.o
                                                  build/py/gc.o
mp_print_strn                                     build/py/mpprint.o
                                                  build/py/modbuiltins.o
                                                  build/py/objstr.o
mp_printf                                         build/py/mpprint.o
                                                  build/shared/runtime/pyexec.o
                                                  build/py/repl.o
                                                  build/py/objtype.o
                                                  build/py/objstr.o
                                                  build/py/objsingleton.o
                                                  build/py/objrange.o
                                                  build/py/objmodule.o
                                                  build/py/objgenerator.o
                                                  build/py/obj.o
                                                  build/py/gc.o
mp_qstr_const_hashes                              build/py/qstr.o
mp_qstr_const_lengths                             build/py/qstr.o
mp_qstr_const_pool                                build/py/qstr.o
                                                  build/build/_frozen_mpy.o
mp_qstr_frozen_const_hashes                       build/build/_frozen_mpy.o
mp_qstr_frozen_const_lengths                      build/build/_frozen_mpy.o
mp_qstr_frozen_const_pool                         build/build/_frozen_mpy.o
                                                  build/py/qstr.o
mp_raise_NotImplementedError                      build/py/runtime.o
                                                  build/py/modbuiltins.o
                                                  build/py/objtype.o
                                                  build/py/objstr.o
                                                  build/py/lexer.o
mp_raise_OSError                                  build/py/runtime.o
                                                  build/main.o
                                                  build/py/stream.o
mp_raise_OSError_with_filename                    build/py/runtime.o
mp_raise_StopIteration                            build/py/runtime.o
                                                  build/py/modbuiltins.o
                                                  build/py/objgenerator.o
mp_raise_TypeError                                build/py/runtime.o
                                                  build/py/bc.o
                                                  build/py/modbuiltins.o
                                                  build/py/builtinevex.o
                                                  build/py/objtype.o
                                                  build/py/objstr.o
                                                  build/py/objgenerator.o
                                                  build/py/objdict.o
                                                  build/py/obj.o
                                                  build/py/argcheck.o
mp_raise_TypeError_int_conversion                 build/py/runtime.o
                                                  build/py/objint.o
                                                  build/py/obj.o
mp_raise_ValueError                               build/py/runtime.o
                                                  build/py/modbuiltins.o
                                                  build/py/builtinimport.o
                                                  build/py/binary.o
                                                  build/py/sequence.o
                                                  build/py/objstr.o
                                                  build/py/objrange.o
                                                  build/py/objint.o
                                                  build/py/objgenerator.o
                                                  build/py/objdict.o
                                                  build/py/obj.o
                                                  build/py/parsenum.o
mp_raise_msg                                      build/py/runtime.o
                                                  build/shared/runtime/pyexec.o
                                                  build/py/builtinimport.o
                                                  build/py/stream.o
                                                  build/py/objstr.o
                                                  build/py/objlist.o
                                                  build/py/objint.o
                                                  build/py/objgenerator.o
                                                  build/py/objdict.o
                                                  build/py/obj.o
                                                  build/py/emitbc.o
                                                  build/py/vstr.o
                                                  build/py/qstr.o
mp_raise_msg_varg                                 build/py/runtime.o
                                                  build/py/bc.o
mp_raise_type_arg                                 build/py/runtime.o
                                                  build/py/objstr.o
                                                  build/py/objdict.o
mp_reader_new_mem                                 build/py/reader.o
                                                  build/py/lexer.o
mp_repl_autocomplete                              build/py/repl.o
                                                  build/shared/readline/readline.o
mp_repl_continue_with_input                       build/py/repl.o
                                                  build/shared/runtime/pyexec.o
mp_resume                                         build/py/runtime.o
                                                  build/py/vm.o
mp_sched_exception                                build/py/scheduler.o
mp_seq_cmp_bytes                                  build/py/sequence.o
                                                  build/py/objstr.o
mp_seq_cmp_objs                                   build/py/sequence.o
                                                  build/py/objtuple.o
                                                  build/py/objlist.o
mp_seq_count_obj                                  build/py/sequence.o
                                                  build/py/objtuple.o
                                                  build/py/objlist.o
mp_seq_extract_slice                              build/py/sequence.o
mp_seq_index_obj                                  build/py/sequence.o
                                                  build/py/objtuple.o
                                                  build/py/objlist.o
mp_seq_multiply                                   build/py/sequence.o
                                                  build/py/objtuple.o
                                                  build/py/objstr.o
                                                  build/py/objlist.o
mp_setup_code_state                               build/py/bc.o
                                                  build/py/objgenerator.o
                                                  build/py/objfun.o
mp_small_int_floor_divide                         build/py/smallint.o
                                                  build/py/runtime.o
mp_small_int_modulo                               build/py/smallint.o
                                                  build/py/runtime.o
mp_small_int_mul_overflow                         build/py/smallint.o
                                                  build/py/runtime.o
                                                  build/py/parsenum.o
mp_stack_ctrl_init                                build/py/stackctrl.o
mp_stack_set_top                                  build/py/stackctrl.o
mp_stack_usage                                    build/py/stackctrl.o
mp_state_ctx                                      build/py/mpstate.o
                                                  build/shared/runtime/pyexec.o
                                                  build/shared/readline/readline.o
                                                  build/py/repl.o
                                                  build/py/vm.o
                                                  build/py/modbuiltins.o
                                                  build/py/builtinevex.o
                                                  build/py/builtinimport.o
                                                  build/py/objmodule.o
                                                  build/py/objgenerator.o
                                                  build/py/objfun.o
                                                  build/py/objexcept.o
                                                  build/py/stackctrl.o
                                                  build/py/scheduler.o
                                                  build/py/runtime.o
                                                  build/py/compile.o
                                                  build/py/lexer.o
                                                  build/py/qstr.o
                                                  build/py/gc.o
                                                  build/py/nlraarch64.o
                                                  build/py/nlr.o
mp_store_attr                                     build/py/runtime.o
                                                  build/py/vm.o
                                                  build/py/modbuiltins.o
                                                  build/py/builtinimport.o
mp_store_global                                   build/py/runtime.o
                                                  build/py/vm.o
mp_store_name                                     build/py/runtime.o
                                                  build/py/vm.o
mp_str_print_quoted                               build/py/objstr.o
mp_stream_close                                   build/py/stream.o
mp_stream_close_obj                               build/py/stream.o
mp_stream_flush_obj                               build/py/stream.o
mp_stream_ioctl_obj                               build/py/stream.o
mp_stream_read1_obj                               build/py/stream.o
mp_stream_read_obj                                build/py/stream.o
mp_stream_readinto_obj                            build/py/stream.o
mp_stream_rw                                      build/py/stream.o
mp_stream_seek_obj                                build/py/stream.o
mp_stream_tell_obj                                build/py/stream.o
mp_stream_unbuffered_iter                         build/py/stream.o
                                                  build/py/runtime.o
mp_stream_unbuffered_readline_obj                 build/py/stream.o
mp_stream_unbuffered_readlines_obj                build/py/stream.o
mp_stream_write                                   build/py/stream.o
mp_stream_write1_obj                              build/py/stream.o
mp_stream_write_adaptor                           build/py/stream.o
mp_stream_write_obj                               build/py/stream.o
mp_type_ArithmeticError                           build/py/objexcept.o
                                                  build/py/modbuiltins.o
mp_type_AssertionError                            build/py/objexcept.o
                                                  build/py/modbuiltins.o
mp_type_AttributeError                            build/py/objexcept.o
                                                  build/py/modbuiltins.o
                                                  build/py/runtime.o
mp_type_BaseException                             build/py/objexcept.o
                                                  build/py/modbuiltins.o
mp_type_EOFError                                  build/py/objexcept.o
                                                  build/py/modbuiltins.o
mp_type_Exception                                 build/py/objexcept.o
                                                  build/py/modbuiltins.o
mp_type_GeneratorExit                             build/py/objexcept.o
                                                  build/py/vm.o
                                                  build/py/modbuiltins.o
                                                  build/py/objgenerator.o
                                                  build/py/runtime.o
mp_type_ImportError                               build/py/objexcept.o
                                                  build/py/modbuiltins.o
                                                  build/py/builtinimport.o
                                                  build/py/runtime.o
mp_type_IndentationError                          build/py/objexcept.o
                                                  build/py/modbuiltins.o
                                                  build/py/parse.o
mp_type_IndexError                                build/py/objexcept.o
                                                  build/py/modbuiltins.o
                                                  build/py/objstr.o
                                                  build/py/objlist.o
                                                  build/py/objgetitemiter.o
                                                  build/py/obj.o
mp_type_KeyError                                  build/py/objexcept.o
                                                  build/py/modbuiltins.o
                                                  build/py/objstr.o
                                                  build/py/objdict.o
mp_type_KeyboardInterrupt                         build/py/objexcept.o
                                                  build/shared/runtime/pyexec.o
                                                  build/py/modbuiltins.o
mp_type_LookupError                               build/py/objexcept.o
                                                  build/py/modbuiltins.o
mp_type_MemoryError                               build/py/objexcept.o
                                                  build/py/modbuiltins.o
                                                  build/py/runtime.o
mp_type_NameError                                 build/py/objexcept.o
                                                  build/py/vm.o
                                                  build/py/modbuiltins.o
                                                  build/py/runtime.o
mp_type_NoneType                                  build/py/objnone.o
                                                  build/py/obj.o
mp_type_NotImplementedError                       build/py/objexcept.o
                                                  build/py/vm.o
                                                  build/py/modbuiltins.o
                                                  build/py/runtime.o
mp_type_OSError                                   build/py/objexcept.o
                                                  build/py/modbuiltins.o
                                                  build/py/stream.o
                                                  build/py/runtime.o
mp_type_OverflowError                             build/py/objexcept.o
                                                  build/py/modbuiltins.o
                                                  build/py/objint.o
mp_type_RuntimeError                              build/py/objexcept.o
                                                  build/py/vm.o
                                                  build/py/modbuiltins.o
                                                  build/py/objgenerator.o
                                                  build/py/runtime.o
                                                  build/py/emitbc.o
                                                  build/py/vstr.o
                                                  build/py/qstr.o
mp_type_StopIteration                             build/py/objexcept.o
                                                  build/py/vm.o
                                                  build/py/modbuiltins.o
                                                  build/py/objgetitemiter.o
                                                  build/py/objgenerator.o
                                                  build/py/runtime.o
mp_type_SyntaxError                               build/py/objexcept.o
                                                  build/py/modbuiltins.o
                                                  build/py/parsenum.o
                                                  build/py/compile.o
                                                  build/py/parse.o
mp_type_SystemExit                                build/py/objexcept.o
                                                  build/shared/runtime/pyexec.o
                                                  build/py/modbuiltins.o
mp_type_TypeError                                 build/py/objexcept.o
                                                  build/py/bc.o
                                                  build/py/modbuiltins.o
                                                  build/py/runtime.o
mp_type_ValueError                                build/py/objexcept.o
                                                  build/py/modbuiltins.o
                                                  build/py/runtime.o
                                                  build/py/parsenum.o
mp_type_ZeroDivisionError                         build/py/objexcept.o
                                                  build/py/modbuiltins.o
                                                  build/py/runtime.o
mp_type_bool                                      build/py/objbool.o
                                                  build/py/modbuiltins.o
                                                  build/py/obj.o
mp_type_bytes                                     build/py/objstr.o
                                                  build/build/_frozen_mpy.o
                                                  build/py/modbuiltins.o
                                                  build/py/obj.o
                                                  build/py/gc.o
mp_type_classmethod                               build/py/objtype.o
                                                  build/py/modbuiltins.o
                                                  build/py/objint.o
                                                  build/py/runtime.o
mp_type_closure                                   build/py/objclosure.o
mp_type_dict                                      build/py/objdict.o
                                                  build/py/modbuiltins.o
                                                  build/py/builtinevex.o
                                                  build/py/objtuple.o
                                                  build/py/objstr.o
                                                  build/py/objlist.o
                                                  build/py/objint.o
                                                  build/py/objgenerator.o
                                                  build/py/runtime.o
                                                  build/py/gc.o
mp_type_fun_bc                                    build/py/objfun.o
                                                  build/py/gc.o
mp_type_fun_builtin_0                             build/py/objfun.o
                                                  build/py/modbuiltins.o
mp_type_fun_builtin_1                             build/py/objfun.o
                                                  build/py/modbuiltins.o
                                                  build/py/stream.o
                                                  build/py/objstr.o
                                                  build/py/objlist.o
                                                  build/py/objgenerator.o
                                                  build/py/objdict.o
                                                  build/py/obj.o
mp_type_fun_builtin_2                             build/py/objfun.o
                                                  build/py/modbuiltins.o
                                                  build/py/stream.o
                                                  build/py/opmethods.o
                                                  build/py/objtype.o
                                                  build/py/objtuple.o
                                                  build/py/objstr.o
                                                  build/py/objlist.o
                                                  build/py/objgenerator.o
mp_type_fun_builtin_3                             build/py/objfun.o
                                                  build/py/modbuiltins.o
                                                  build/py/opmethods.o
                                                  build/py/objlist.o
mp_type_fun_builtin_var                           build/py/objfun.o
                                                  build/py/modbuiltins.o
                                                  build/py/builtinevex.o
                                                  build/py/builtinimport.o
                                                  build/py/stream.o
                                                  build/py/objtype.o
                                                  build/py/objtuple.o
                                                  build/py/objstr.o
                                                  build/py/objlist.o
                                                  build/py/objint.o
                                                  build/py/objgenerator.o
                                                  build/py/objdict.o
mp_type_gen_instance                              build/py/objgenerator.o
                                                  build/py/runtime.o
mp_type_gen_wrap                                  build/py/objgenerator.o
                                                  build/py/emitglue.o
mp_type_int                                       build/py/objint.o
                                                  build/py/modbuiltins.o
                                                  build/py/objtype.o
                                                  build/py/objstr.o
                                                  build/py/obj.o
                                                  build/py/parse.o
                                                  build/py/mpprint.o
mp_type_list                                      build/py/objlist.o
                                                  build/py/modbuiltins.o
                                                  build/py/objstr.o
                                                  build/py/objint.o
                                                  build/py/obj.o
                                                  build/py/runtime.o
                                                  build/py/gc.o
mp_type_map                                       build/py/objmap.o
                                                  build/py/modbuiltins.o
mp_type_module                                    build/py/objmodule.o
                                                  build/py/modbuiltins.o
                                                  build/py/runtime.o
                                                  build/py/gc.o
mp_type_object                                    build/py/objobject.o
                                                  build/py/modbuiltins.o
                                                  build/py/objtype.o
mp_type_polymorph_iter                            build/py/objpolyiter.o
                                                  build/py/objtuple.o
                                                  build/py/objstr.o
                                                  build/py/objlist.o
mp_type_range                                     build/py/objrange.o
                                                  build/py/modbuiltins.o
mp_type_singleton                                 build/py/objsingleton.o
mp_type_staticmethod                              build/py/objtype.o
                                                  build/py/modbuiltins.o
                                                  build/py/runtime.o
mp_type_str                                       build/py/objstr.o
                                                  build/build/_frozen_mpy.o
                                                  build/py/modbuiltins.o
                                                  build/py/objexcept.o
                                                  build/py/obj.o
                                                  build/py/map.o
                                                  build/py/parse.o
                                                  build/py/gc.o
mp_type_super                                     build/py/objtype.o
                                                  build/py/modbuiltins.o
mp_type_tuple                                     build/py/objtuple.o
                                                  build/py/modbuiltins.o
                                                  build/py/objtype.o
                                                  build/py/objstr.o
                                                  build/py/objint.o
                                                  build/py/objexcept.o
                                                  build/py/obj.o
                                                  build/py/runtime.o
                                                  build/py/emitcommon.o
                                                  build/py/gc.o
mp_type_type                                      build/py/objtype.o
                                                  build/py/modbuiltins.o
                                                  build/py/objzip.o
                                                  build/py/objtuple.o
                                                  build/py/objstr.o
                                                  build/py/objsingleton.o
                                                  build/py/objrange.o
                                                  build/py/objnone.o
                                                  build/py/objpolyiter.o
                                                  build/py/objobject.o
                                                  build/py/objmodule.o
                                                  build/py/objmap.o
                                                  build/py/objlist.o
                                                  build/py/objint.o
                                                  build/py/objgetitemiter.o
                                                  build/py/objgenerator.o
                                                  build/py/objfun.o
                                                  build/py/objexcept.o
                                                  build/py/objdict.o
                                                  build/py/objclosure.o
                                                  build/py/objcell.o
                                                  build/py/objboundmeth.o
                                                  build/py/objbool.o
mp_type_zip                                       build/py/objzip.o
                                                  build/py/modbuiltins.o
mp_unary_op                                       build/py/runtime.o
                                                  build/py/vm.o
                                                  build/py/modbuiltins.o
                                                  build/py/objtype.o
                                                  build/py/objtuple.o
                                                  build/py/objint.o
                                                  build/py/objbool.o
                                                  build/py/obj.o
                                                  build/py/map.o
mp_unary_op_method_name                           build/py/objtype.o
mp_unpack_ex                                      build/py/runtime.o
                                                  build/py/vm.o
mp_unpack_sequence                                build/py/runtime.o
                                                  build/py/vm.o
mp_vprintf                                        build/py/mpprint.o
                                                  build/shared/libc/printf.o
                                                  build/py/objexcept.o
                                                  build/py/vstr.o
nlr_call_jump_callbacks                           build/py/nlr.o
                                                  build/py/nlraarch64.o
nlr_jump                                          build/py/nlraarch64.o
                                                  build/py/objgetitemiter.o
                                                  build/py/objgenerator.o
                                                  build/py/objfun.o
                                                  build/py/scheduler.o
                                                  build/py/runtime.o
                                                  build/py/parsenum.o
                                                  build/py/compile.o
                                                  build/py/parse.o
nlr_jump_fail                                     build/main.o
                                                  build/py/nlraarch64.o
nlr_pop                                           build/py/nlr.o
                                                  build/shared/runtime/pyexec.o
                                                  build/main.o
                                                  build/py/vm.o
                                                  build/py/objgetitemiter.o
                                                  build/py/runtime_utils.o
                                                  build/py/runtime.o
nlr_pop_jump_callback                             build/py/nlr.o
                                                  build/py/builtinimport.o
                                                  build/py/runtime.o
nlr_push                                          build/py/nlraarch64.o
                                                  build/shared/runtime/pyexec.o
                                                  build/main.o
                                                  build/py/vm.o
                                                  build/py/objgetitemiter.o
                                                  build/py/runtime_utils.o
                                                  build/py/runtime.o
nlr_push_jump_callback                            build/py/nlr.o
                                                  build/py/builtinimport.o
                                                  build/py/runtime.o
nlr_push_tail                                     build/py/nlr.o
                                                  build/py/nlraarch64.o
printf                                            build/shared/libc/printf.o
                                                  ../../../../build/lib/libc/libc.a(crt1.c.obj)
putchar                                           build/shared/libc/printf.o
puts                                              build/shared/libc/printf.o
pyexec_file                                       build/shared/runtime/pyexec.o
pyexec_file_if_exists                             build/shared/runtime/pyexec.o
pyexec_friendly_repl                              build/shared/runtime/pyexec.o
                                                  build/main.o
pyexec_frozen_module                              build/shared/runtime/pyexec.o
pyexec_mode_kind                                  build/shared/runtime/pyexec.o
pyexec_raw_repl                                   build/shared/runtime/pyexec.o
pyexec_system_exit                                build/shared/runtime/pyexec.o
qstr_compute_hash                                 build/py/qstr.o
                                                  build/py/objstr.o
                                                  build/py/objexcept.o
                                                  build/py/runtime.o
qstr_data                                         build/py/qstr.o
                                                  build/py/repl.o
                                                  build/py/objstr.o
                                                  build/py/objmodule.o
                                                  build/py/runtime.o
                                                  build/py/compile.o
                                                  build/py/mpprint.o
qstr_find_strn                                    build/py/qstr.o
                                                  build/py/repl.o
                                                  build/py/objstr.o
                                                  build/py/parse.o
qstr_from_str                                     build/py/qstr.o
qstr_from_strn                                    build/py/qstr.o
                                                  build/py/builtinimport.o
                                                  build/py/objstr.o
                                                  build/py/objmodule.o
                                                  build/py/runtime.o
                                                  build/py/compile.o
                                                  build/py/parse.o
qstr_hash                                         build/py/qstr.o
                                                  build/py/objstr.o
                                                  build/py/map.o
                                                  build/py/runtime.o
qstr_init                                         build/py/qstr.o
                                                  build/py/runtime.o
qstr_len                                          build/py/qstr.o
                                                  build/py/objstr.o
                                                  build/py/obj.o
                                                  build/py/runtime.o
                                                  build/py/compile.o
qstr_pool_info                                    build/py/qstr.o
qstr_str                                          build/py/qstr.o
                                                  build/py/builtinimport.o
                                                  build/py/objtype.o
                                                  build/py/objexcept.o
                                                  build/py/obj.o
                                                  build/py/runtime.o
read                                              ../../../../build/lib/libc/libc.a(read.c.obj)
                                                  build/uart_core.o
readline                                          build/shared/readline/readline.o
                                                  build/shared/runtime/pyexec.o
readline_init                                     build/shared/readline/readline.o
readline_init0                                    build/shared/readline/readline.o
readline_note_newline                             build/shared/readline/readline.o
readline_process_char                             build/shared/readline/readline.o
readline_push_history                             build/shared/readline/readline.o
ringbuf_get16                                     build/py/ringbuf.o
ringbuf_get_bytes                                 build/py/ringbuf.o
ringbuf_peek16                                    build/py/ringbuf.o
ringbuf_put16                                     build/py/ringbuf.o
ringbuf_put_bytes                                 build/py/ringbuf.o
scope_check_to_close_over                         build/py/scope.o
                                                  build/py/compile.o
scope_find                                        build/py/scope.o
                                                  build/py/emitcommon.o
                                                  build/py/compile.o
scope_find_global                                 build/py/scope.o
                                                  build/py/compile.o
scope_find_or_add_id                              build/py/scope.o
                                                  build/py/emitcommon.o
                                                  build/py/compile.o
scope_free                                        build/py/scope.o
                                                  build/py/compile.o
scope_new                                         build/py/scope.o
                                                  build/py/compile.o
sigaction                                         ../../../../build/lib/libc/libc.a(sigaction.c.obj)
                                                  ../../../../build/lib/libc/libc.a(crt1.c.obj)
snprintf                                          build/shared/libc/printf.o
                                                  build/shared/readline/readline.o
str_endswith_obj                                  build/py/objstr.o
str_find_obj                                      build/py/objstr.o
str_format_obj                                    build/py/objstr.o
str_index_obj                                     build/py/objstr.o
str_index_to_ptr                                  build/py/objstr.o
str_isalpha_obj                                   build/py/objstr.o
str_isdigit_obj                                   build/py/objstr.o
str_islower_obj                                   build/py/objstr.o
str_isspace_obj                                   build/py/objstr.o
str_isupper_obj                                   build/py/objstr.o
str_join_obj                                      build/py/objstr.o
str_lower_obj                                     build/py/objstr.o
str_lstrip_obj                                    build/py/objstr.o
str_replace_obj                                   build/py/objstr.o
str_rfind_obj                                     build/py/objstr.o
str_rindex_obj                                    build/py/objstr.o
str_rsplit_obj                                    build/py/objstr.o
str_rstrip_obj                                    build/py/objstr.o
str_split_obj                                     build/py/objstr.o
str_startswith_obj                                build/py/objstr.o
str_strip_obj                                     build/py/objstr.o
str_upper_obj                                     build/py/objstr.o
strchr                                            ../../../../build/lib/libc/libc.a(strchr.c.obj)
                                                  build/py/objstr.o
strchrnul                                         ../../../../build/lib/libc/libc.a(strchrnul.c.obj)
strcmp                                            ../../../../build/lib/libc/libc.a(strcmp.c.obj)
                                                  build/shared/readline/readline.o
                                                  build/py/lexer.o
strlen                                            ../../../../build/lib/libc/libc.a(strlen.c.obj)
                                                  ../../../../build/lib/libc/libc.a(strchrnul.c.obj)
                                                  build/shared/runtime/stdout_helpers.o
                                                  build/shared/readline/readline.o
                                                  build/shared/libc/printf.o
                                                  build/main.o
                                                  build/py/frozenmod.o
                                                  build/py/binary.o
                                                  build/py/objint.o
                                                  build/py/objexcept.o
                                                  build/py/mpprint.o
                                                  build/py/vstr.o
                                                  build/py/qstr.o
strncmp                                           ../../../../build/lib/libc/libc.a(strncmp.c.obj)
                                                  build/py/repl.o
                                                  build/py/builtinimport.o
sys_accept                                        ../../../../build/lib/libc/libc.a(crt0.S.obj)
sys_bind                                          ../../../../build/lib/libc/libc.a(crt0.S.obj)
sys_chdir                                         ../../../../build/lib/libc/libc.a(crt0.S.obj)
sys_clock_gettime                                 ../../../../build/lib/libc/libc.a(crt0.S.obj)
sys_close                                         ../../../../build/lib/libc/libc.a(crt0.S.obj)
sys_connect                                       ../../../../build/lib/libc/libc.a(crt0.S.obj)
sys_creat                                         ../../../../build/lib/libc/libc.a(crt0.S.obj)
sys_dup                                           ../../../../build/lib/libc/libc.a(crt0.S.obj)
sys_dup2                                          ../../../../build/lib/libc/libc.a(crt0.S.obj)
sys_execve                                        ../../../../build/lib/libc/libc.a(crt0.S.obj)
sys_exit                                          ../../../../build/lib/libc/libc.a(crt0.S.obj)
                                                  ../../../../build/lib/libc/libc.a(_Exit.c.obj)
sys_fcntl                                         ../../../../build/lib/libc/libc.a(crt0.S.obj)
sys_fork                                          ../../../../build/lib/libc/libc.a(crt0.S.obj)
sys_getcwd                                        ../../../../build/lib/libc/libc.a(crt0.S.obj)
sys_getpid                                        ../../../../build/lib/libc/libc.a(crt0.S.obj)
                                                  ../../../../build/lib/libc/libc.a(getpid.c.obj)
sys_gettimeofday                                  ../../../../build/lib/libc/libc.a(crt0.S.obj)
sys_halt                                          ../../../../build/lib/libc/libc.a(crt0.S.obj)
sys_info                                          ../../../../build/lib/libc/libc.a(crt0.S.obj)
sys_ioctl                                         ../../../../build/lib/libc/libc.a(crt0.S.obj)
sys_kill                                          ../../../../build/lib/libc/libc.a(crt0.S.obj)
sys_listen                                        ../../../../build/lib/libc/libc.a(crt0.S.obj)
sys_lseek                                         ../../../../build/lib/libc/libc.a(crt0.S.obj)
sys_mmap                                          ../../../../build/lib/libc/libc.a(crt0.S.obj)
sys_mutex_lock                                    ../../../../build/lib/libc/libc.a(crt0.S.obj)
sys_mutex_unlock                                  ../../../../build/lib/libc/libc.a(crt0.S.obj)
sys_nanosleep                                     ../../../../build/lib/libc/libc.a(crt0.S.obj)
sys_open                                          ../../../../build/lib/libc/libc.a(crt0.S.obj)
sys_pause                                         ../../../../build/lib/libc/libc.a(crt0.S.obj)
sys_pipe                                          ../../../../build/lib/libc/libc.a(crt0.S.obj)
sys_ptrace                                        ../../../../build/lib/libc/libc.a(crt0.S.obj)
sys_read                                          ../../../../build/lib/libc/libc.a(crt0.S.obj)
                                                  ../../../../build/lib/libc/libc.a(read.c.obj)
sys_readdir                                       ../../../../build/lib/libc/libc.a(crt0.S.obj)
sys_recv                                          ../../../../build/lib/libc/libc.a(crt0.S.obj)
sys_recvfrom                                      ../../../../build/lib/libc/libc.a(crt0.S.obj)
sys_sbrk                                          ../../../../build/lib/libc/libc.a(crt0.S.obj)
sys_sched_setparam                                ../../../../build/lib/libc/libc.a(crt0.S.obj)
sys_send                                          ../../../../build/lib/libc/libc.a(crt0.S.obj)
sys_sendto                                        ../../../../build/lib/libc/libc.a(crt0.S.obj)
sys_setsockopt                                    ../../../../build/lib/libc/libc.a(crt0.S.obj)
sys_settimeofday                                  ../../../../build/lib/libc/libc.a(crt0.S.obj)
sys_sigaction                                     ../../../../build/lib/libc/libc.a(crt0.S.obj)
                                                  ../../../../build/lib/libc/libc.a(sigaction.c.obj)
sys_sigreturn                                     ../../../../build/lib/libc/libc.a(crt0.S.obj)
                                                  ../../../../build/lib/libc/libc.a(sigaction.c.obj)
sys_socket                                        ../../../../build/lib/libc/libc.a(crt0.S.obj)
sys_stat                                          ../../../../build/lib/libc/libc.a(crt0.S.obj)
sys_thread_create                                 ../../../../build/lib/libc/libc.a(crt0.S.obj)
sys_thread_exit                                   ../../../../build/lib/libc/libc.a(crt0.S.obj)
sys_thread_join                                   ../../../../build/lib/libc/libc.a(crt0.S.obj)
sys_thread_yield                                  ../../../../build/lib/libc/libc.a(crt0.S.obj)
sys_unlink                                        ../../../../build/lib/libc/libc.a(crt0.S.obj)
sys_waitpid                                       ../../../../build/lib/libc/libc.a(crt0.S.obj)
                                                  ../../../../build/lib/libc/libc.a(waitpid.c.obj)
sys_write                                         ../../../../build/lib/libc/libc.a(crt0.S.obj)
                                                  ../../../../build/lib/libc/libc.a(write.c.obj)
term_default                                      ../../../../build/lib/libc/libc.a(crt1.c.obj)
unichar_isalnum                                   build/py/unicode.o
unichar_isalpha                                   build/py/unicode.o
                                                  build/py/repl.o
                                                  build/py/objstr.o
                                                  build/py/lexer.o
unichar_isdigit                                   build/py/unicode.o
                                                  build/py/repl.o
                                                  build/py/objstr.o
                                                  build/py/lexer.o
unichar_isident                                   build/py/unicode.o
                                                  build/py/repl.o
unichar_islower                                   build/py/unicode.o
                                                  build/py/objstr.o
unichar_isspace                                   build/py/unicode.o
                                                  build/shared/readline/readline.o
                                                  build/py/objstr.o
                                                  build/py/parsenum.o
                                                  build/py/lexer.o
unichar_isupper                                   build/py/unicode.o
                                                  build/py/objstr.o
unichar_isxdigit                                  build/py/unicode.o
                                                  build/py/lexer.o
unichar_tolower                                   build/py/unicode.o
                                                  build/py/objstr.o
unichar_toupper                                   build/py/unicode.o
                                                  build/py/objstr.o
unichar_xdigit_value                              build/py/unicode.o
                                                  build/py/lexer.o
vprintf                                           build/shared/libc/printf.o
vsnprintf                                         build/shared/libc/printf.o
vstr_add_byte                                     build/py/vstr.o
                                                  build/shared/runtime/pyexec.o
                                                  build/py/objstr.o
                                                  build/py/lexer.o
vstr_add_char                                     build/py/vstr.o
                                                  build/py/builtinimport.o
                                                  build/py/lexer.o
vstr_add_len                                      build/py/vstr.o
                                                  build/py/stream.o
vstr_add_str                                      build/py/vstr.o
                                                  build/shared/readline/readline.o
                                                  build/py/builtinimport.o
vstr_add_strn                                     build/py/vstr.o
vstr_clear                                        build/py/vstr.o
                                                  build/shared/runtime/pyexec.o
                                                  build/py/stream.o
                                                  build/py/objstr.o
                                                  build/py/lexer.o
vstr_cut_head_bytes                               build/py/vstr.o
vstr_cut_out_bytes                                build/py/vstr.o
                                                  build/shared/readline/readline.o
vstr_cut_tail_bytes                               build/py/vstr.o
                                                  build/shared/readline/readline.o
                                                  build/py/stream.o
                                                  build/py/lexer.o
vstr_extend                                       build/py/vstr.o
                                                  build/py/stream.o
vstr_free                                         build/py/vstr.o
vstr_hint_size                                    build/py/vstr.o
vstr_init                                         build/py/vstr.o
                                                  build/shared/runtime/pyexec.o
                                                  build/py/stream.o
                                                  build/py/objstr.o
                                                  build/py/runtime.o
                                                  build/py/lexer.o
vstr_init_fixed_buf                               build/py/vstr.o
                                                  build/py/builtinimport.o
vstr_init_len                                     build/py/vstr.o
                                                  build/py/stream.o
                                                  build/py/objstr.o
                                                  build/py/objint.o
vstr_init_print                                   build/py/vstr.o
                                                  build/py/modbuiltins.o
                                                  build/py/objstr.o
vstr_ins_byte                                     build/py/vstr.o
                                                  build/shared/readline/readline.o
vstr_ins_char                                     build/py/vstr.o
                                                  build/shared/readline/readline.o
vstr_new                                          build/py/vstr.o
vstr_null_terminated_str                          build/py/vstr.o
                                                  build/shared/runtime/pyexec.o
                                                  build/shared/readline/readline.o
                                                  build/py/builtinimport.o
                                                  build/py/objstr.o
                                                  build/py/lexer.o
vstr_printf                                       build/py/vstr.o
                                                  build/py/runtime.o
vstr_vprintf                                      build/py/vstr.o
waitpid                                           ../../../../build/lib/libc/libc.a(waitpid.c.obj)
                                                  ../../../../build/lib/libc/libc.a(crt1.c.obj)
write                                             ../../../../build/lib/libc/libc.a(write.c.obj)
                                                  build/uart_core.o
